; ModuleID = 'solution.cpp'
source_filename = "solution.cpp"
target datalayout = "e-m:e-p270:32:32-p271:32:32-p272:64:64-i64:64-f80:128-n8:16:32:64-S128"
target triple = "x86_64-unknown-linux-gnu"

%"class.std::ios_base::Init" = type { i8 }
%"struct.std::once_flag" = type { i32 }
%"class.std::basic_ostream" = type { i32 (...)**, %"class.std::basic_ios" }
%"class.std::basic_ios" = type { %"class.std::ios_base", %"class.std::basic_ostream"*, i8, i8, %"class.std::basic_streambuf"*, %"class.std::ctype"*, %"class.std::num_put"*, %"class.std::num_get"* }
%"class.std::ios_base" = type { i32 (...)**, i64, i64, i32, i32, i32, %"struct.std::ios_base::_Callback_list"*, %"struct.std::ios_base::_Words", [8 x %"struct.std::ios_base::_Words"], i32, %"struct.std::ios_base::_Words"*, %"class.std::locale" }
%"struct.std::ios_base::_Callback_list" = type { %"struct.std::ios_base::_Callback_list"*, void (i32, %"class.std::ios_base"*, i32)*, i32, i32 }
%"struct.std::ios_base::_Words" = type { i8*, i64 }
%"class.std::locale" = type { %"class.std::locale::_Impl"* }
%"class.std::locale::_Impl" = type { i32, %"class.std::locale::facet"**, i64, %"class.std::locale::facet"**, i8** }
%"class.std::locale::facet" = type <{ i32 (...)**, i32, [4 x i8] }>
%"class.std::basic_streambuf" = type { i32 (...)**, i8*, i8*, i8*, i8*, i8*, i8*, %"class.std::locale" }
%"class.std::ctype" = type <{ %"class.std::locale::facet.base", [4 x i8], %struct.__locale_struct*, i8, [7 x i8], i32*, i32*, i16*, i8, [256 x i8], [256 x i8], i8, [6 x i8] }>
%"class.std::locale::facet.base" = type <{ i32 (...)**, i32 }>
%struct.__locale_struct = type { [13 x %struct.__locale_data*], i16*, i32*, i32*, [13 x i8*] }
%struct.__locale_data = type opaque
%"class.std::num_put" = type { %"class.std::locale::facet.base", [4 x i8] }
%"class.std::num_get" = type { %"class.std::locale::facet.base", [4 x i8] }
%"class.std::vector" = type { %"struct.std::_Vector_base" }
%"struct.std::_Vector_base" = type { %"struct.std::_Vector_base<void *, std::allocator<void *>>::_Vector_impl" }
%"struct.std::_Vector_base<void *, std::allocator<void *>>::_Vector_impl" = type { %"struct.std::_Vector_base<void *, std::allocator<void *>>::_Vector_impl_data" }
%"struct.std::_Vector_base<void *, std::allocator<void *>>::_Vector_impl_data" = type { i8**, i8**, i8** }
%"struct.std::piecewise_construct_t" = type { i8 }
%"struct.rlbox::rlbox_wasm2c_sandbox_thread_data" = type { %"class.rlbox::rlbox_wasm2c_sandbox"*, i32 }
%"class.rlbox::rlbox_wasm2c_sandbox" = type { i8*, %struct.wasm2c_sandbox_funcs_t, %struct.wasm_rt_memory_t*, i64, i8*, i8*, i8*, i64, i32, %"class.std::shared_timed_mutex", [128 x i8*], [128 x i8*], [128 x i32], %"class.std::map", %"class.std::map.0" }
%struct.wasm2c_sandbox_funcs_t = type { void ()*, i8* (i32)*, void (i8*)*, i8* (i8*, i8*)*, i32 (i8*, i32, i32, i32*)*, i32 (i8*, i32, i8*, i32)*, void (i8*, i32)* }
%struct.wasm_rt_memory_t = type { i8*, i32, i32, i32 }
%"class.std::shared_timed_mutex" = type { %"class.std::__shared_mutex_pthread" }
%"class.std::__shared_mutex_pthread" = type { %union.pthread_rwlock_t }
%union.pthread_rwlock_t = type { %struct.__pthread_rwlock_arch_t }
%struct.__pthread_rwlock_arch_t = type { i32, i32, i32, i32, i32, i32, i32, i32, i8, [7 x i8], i64, i32 }
%"class.std::map" = type { %"class.std::_Rb_tree" }
%"class.std::_Rb_tree" = type { %"struct.std::_Rb_tree<const void *, std::pair<const void *const, unsigned int>, std::_Select1st<std::pair<const void *const, unsigned int>>, std::less<const void *>>::_Rb_tree_impl" }
%"struct.std::_Rb_tree<const void *, std::pair<const void *const, unsigned int>, std::_Select1st<std::pair<const void *const, unsigned int>>, std::less<const void *>>::_Rb_tree_impl" = type { %"struct.std::_Rb_tree_key_compare", %"struct.std::_Rb_tree_header" }
%"struct.std::_Rb_tree_key_compare" = type { %"struct.std::less" }
%"struct.std::less" = type { i8 }
%"struct.std::_Rb_tree_header" = type { %"struct.std::_Rb_tree_node_base", i64 }
%"struct.std::_Rb_tree_node_base" = type { i32, %"struct.std::_Rb_tree_node_base"*, %"struct.std::_Rb_tree_node_base"*, %"struct.std::_Rb_tree_node_base"* }
%"class.std::map.0" = type { %"class.std::_Rb_tree.1" }
%"class.std::_Rb_tree.1" = type { %"struct.std::_Rb_tree<unsigned int, std::pair<const unsigned int, const void *>, std::_Select1st<std::pair<const unsigned int, const void *>>, std::less<unsigned int>>::_Rb_tree_impl" }
%"struct.std::_Rb_tree<unsigned int, std::pair<const unsigned int, const void *>, std::_Select1st<std::pair<const unsigned int, const void *>>, std::less<unsigned int>>::_Rb_tree_impl" = type { %"struct.std::_Rb_tree_key_compare.5", %"struct.std::_Rb_tree_header" }
%"struct.std::_Rb_tree_key_compare.5" = type { %"struct.std::less.6" }
%"struct.std::less.6" = type { i8 }
%"class.rlbox::rlbox_sandbox" = type { %"class.rlbox::rlbox_wasm2c_sandbox", %"class.std::shared_timed_mutex", %"class.std::map.8", %"class.rlbox::app_pointer_map", %"struct.std::atomic", %"class.std::mutex", %"class.std::vector", i8*, i8* }
%"class.std::map.8" = type { %"class.std::_Rb_tree.9" }
%"class.std::_Rb_tree.9" = type { %"struct.std::_Rb_tree<std::__cxx11::basic_string<char>, std::pair<const std::__cxx11::basic_string<char>, void *>, std::_Select1st<std::pair<const std::__cxx11::basic_string<char>, void *>>, std::less<std::__cxx11::basic_string<char>>>::_Rb_tree_impl" }
%"struct.std::_Rb_tree<std::__cxx11::basic_string<char>, std::pair<const std::__cxx11::basic_string<char>, void *>, std::_Select1st<std::pair<const std::__cxx11::basic_string<char>, void *>>, std::less<std::__cxx11::basic_string<char>>>::_Rb_tree_impl" = type { %"struct.std::_Rb_tree_key_compare.13", %"struct.std::_Rb_tree_header" }
%"struct.std::_Rb_tree_key_compare.13" = type { %"struct.std::less.14" }
%"struct.std::less.14" = type { i8 }
%"class.rlbox::app_pointer_map" = type { %"class.std::map.16", i32, %"class.std::shared_timed_mutex" }
%"class.std::map.16" = type { %"class.std::_Rb_tree.17" }
%"class.std::_Rb_tree.17" = type { %"struct.std::_Rb_tree<unsigned int, std::pair<const unsigned int, void *>, std::_Select1st<std::pair<const unsigned int, void *>>, std::less<unsigned int>>::_Rb_tree_impl" }
%"struct.std::_Rb_tree<unsigned int, std::pair<const unsigned int, void *>, std::_Select1st<std::pair<const unsigned int, void *>>, std::less<unsigned int>>::_Rb_tree_impl" = type { %"struct.std::_Rb_tree_key_compare.5", %"struct.std::_Rb_tree_header" }
%"struct.std::atomic" = type { i32 }
%"class.std::mutex" = type { %"class.std::__mutex_base" }
%"class.std::__mutex_base" = type { %union.pthread_mutex_t }
%union.pthread_mutex_t = type { %struct.__pthread_mutex_s }
%struct.__pthread_mutex_s = type { i32, i32, i32, i32, i32, i16, i16, %struct.__pthread_internal_list }
%struct.__pthread_internal_list = type { %struct.__pthread_internal_list*, %struct.__pthread_internal_list* }
%"class.rlbox::tainted" = type { i32 }
%class.anon = type { i8 }
%"class.rlbox::tainted_base_impl" = type { i8 }
%"class.rlbox::tainted.24" = type { i8* }
%"class.rlbox::tainted.26" = type { %struct.ImageHeader* }
%struct.ImageHeader = type { i32, i32, i32 }
%"class.rlbox::tainted.30" = type { i8 }
%class.anon.32 = type { i8 }
%"class.rlbox::tainted_base_impl.27" = type { i8 }
%"class.rlbox::tainted_volatile" = type { %"class.rlbox::tainted_volatile.28", %"class.rlbox::tainted_volatile.28", %"class.rlbox::tainted_volatile.28" }
%"class.rlbox::tainted_volatile.28" = type { i32 }
%"class.rlbox::tainted_base_impl.31" = type { i8 }
%"class.rlbox::tainted_base_impl.25" = type { i8 }
%"class.rlbox::tainted_volatile.34" = type { i8 }
%"class.rlbox::tainted_base_impl.35" = type { i8 }
%"class.std::unique_lock" = type <{ %"class.std::shared_timed_mutex"*, i8, [7 x i8] }>
%struct.wasm2c_sandbox_t = type opaque
%"class.rlbox::tainted.65" = type { i32 }
%"class.rlbox::tainted_base_impl.66" = type { i8 }
%"class.__gnu_cxx::__normal_iterator" = type { i8** }
%"class.__gnu_cxx::__normal_iterator.67" = type { i8** }
%"class.std::allocator.21" = type { i8 }
%"class.std::allocator" = type { i8 }
%"class.__gnu_cxx::new_allocator" = type { i8 }
%"class.std::allocator.2" = type { i8 }
%"class.__gnu_cxx::new_allocator.3" = type { i8 }
%"class.std::allocator.10" = type { i8 }
%"class.__gnu_cxx::new_allocator.11" = type { i8 }
%"struct.std::_Rb_tree_iterator" = type { %"struct.std::_Rb_tree_node_base"* }
%"struct.std::_Rb_tree_const_iterator" = type { %"struct.std::_Rb_tree_node_base"* }
%"class.std::tuple" = type { %"struct.std::_Tuple_impl" }
%"struct.std::_Tuple_impl" = type { %"struct.std::_Head_base" }
%"struct.std::_Head_base" = type { i32* }
%"class.std::tuple.36" = type { i8 }
%"struct.std::pair" = type { i32, i8* }
%"class.std::allocator.18" = type { i8 }
%"class.__gnu_cxx::new_allocator.19" = type { i8 }
%"struct.std::_Rb_tree_node" = type { %"struct.std::_Rb_tree_node_base", %"struct.__gnu_cxx::__aligned_membuf" }
%"struct.__gnu_cxx::__aligned_membuf" = type { [16 x i8] }
%"struct.std::pair.37" = type { %"struct.std::_Rb_tree_node_base"*, %"struct.std::_Rb_tree_node_base"* }
%"struct.std::_Select1st" = type { i8 }
%"struct.std::_Index_tuple" = type { i8 }
%"struct.std::_Index_tuple.40" = type { i8 }
%"class.std::__pair_base" = type { i8 }
%"class.std::__pair_base.38" = type { i8 }
%"struct.std::_Rb_tree_node.41" = type { %"struct.std::_Rb_tree_node_base", %"struct.__gnu_cxx::__aligned_membuf.42" }
%"struct.__gnu_cxx::__aligned_membuf.42" = type { [40 x i8] }
%"struct.std::pair.43" = type { %"class.std::__cxx11::basic_string", i8* }
%"class.std::__cxx11::basic_string" = type { %"struct.std::__cxx11::basic_string<char>::_Alloc_hider", i64, %union.anon }
%"struct.std::__cxx11::basic_string<char>::_Alloc_hider" = type { i8* }
%union.anon = type { i64, [8 x i8] }
%"struct.std::_Rb_tree_node.49" = type { %"struct.std::_Rb_tree_node_base", %"struct.__gnu_cxx::__aligned_membuf.50" }
%"struct.__gnu_cxx::__aligned_membuf.50" = type { [16 x i8] }
%"struct.std::pair.51" = type { i32, i8* }
%"struct.std::_Rb_tree_node.54" = type { %"struct.std::_Rb_tree_node_base", %"struct.__gnu_cxx::__aligned_membuf.55" }
%"struct.__gnu_cxx::__aligned_membuf.55" = type { [16 x i8] }
%"struct.std::pair.56" = type <{ i8*, i32, [4 x i8] }>
%"class.rlbox::detail::scope_exit" = type <{ %class.anon.59, i8, [7 x i8] }>
%class.anon.59 = type { %"class.rlbox::rlbox_wasm2c_sandbox"** }
%class.anon.60 = type { %"class.rlbox::rlbox_wasm2c_sandbox"*, i32** }
%"class.rlbox::detail::scope_exit.61" = type <{ %class.anon.62, i8, [7 x i8] }>
%class.anon.62 = type { %"class.rlbox::rlbox_wasm2c_sandbox"** }
%class.anon.64 = type { %"class.rlbox::rlbox_wasm2c_sandbox"*, i32** }
%"struct.__gnu_cxx::__ops::_Iter_equals_val" = type { %"class.rlbox::rlbox_sandbox"** }
%"struct.std::random_access_iterator_tag" = type { i8 }
%"class.__gnu_cxx::new_allocator.22" = type { i8 }
%"class.std::allocator.46" = type { i8 }
%"struct.std::__false_type" = type { i8 }
%"struct.std::forward_iterator_tag" = type { i8 }
%"struct.std::integral_constant" = type { i8 }
%"class.rlbox::detail::scope_exit.68" = type <{ %class.anon.69, i8, [7 x i8] }>
%class.anon.69 = type { %"class.rlbox::rlbox_wasm2c_sandbox"** }
%class.anon.71 = type { %"class.rlbox::rlbox_wasm2c_sandbox"*, i32** }
%"class.rlbox::tainted.72" = type { i8* }
%"class.rlbox::tainted_base_impl.73" = type { i8 }

$_ZN5rlbox13rlbox_sandboxINS_20rlbox_wasm2c_sandboxEEC2Ev = comdat any

$_ZN5rlbox13rlbox_sandboxINS_20rlbox_wasm2c_sandboxEE14create_sandboxIJEEEbDpT_ = comdat any

$_ZN5rlbox13rlbox_sandboxINS_20rlbox_wasm2c_sandboxEE17malloc_in_sandboxIcEENS_7taintedIPT_S1_EEj = comdat any

$_ZN5rlbox6memcpyINS_20rlbox_wasm2c_sandboxEcPcjNS_7taintedEEET3_IPT0_T_ERNS_13rlbox_sandboxIS7_EES8_T1_T2_ = comdat any

$_ZN5rlbox13rlbox_sandboxINS_20rlbox_wasm2c_sandboxEE29INTERNAL_invoke_with_func_ptrIFP11ImageHeaderPcS6_EJRNS_7taintedIS6_S1_EESA_EEEDaPKcPvDpOT0_ = comdat any

$_ZN5rlbox17tainted_base_implINS_7taintedEP11ImageHeaderNS_20rlbox_wasm2c_sandboxEEptEv = comdat any

$_ZN5rlbox7taintedIjNS_20rlbox_wasm2c_sandboxEEC2ERKNS_16tainted_volatileIjS1_EE = comdat any

$_ZNK5rlbox17tainted_base_implINS_7taintedEjNS_20rlbox_wasm2c_sandboxEEneIiEEDaRKT_ = comdat any

$_ZN5rlbox17tainted_base_implINS_7taintedEbNS_20rlbox_wasm2c_sandboxEE23unverified_safe_becauseILm30EEEDaRAT__Kc = comdat any

$_ZNK5rlbox17tainted_base_implINS_7taintedEjNS_20rlbox_wasm2c_sandboxEEmlINS1_IjS2_EEEENS1_IDTmlclL_ZSt7declvalIjEDTcl9__declvalIT_ELi0EEEvEEclsr3stdE7declvalINS_6detail27detail_rlbox_remove_wrapper9unwrapperIS7_E4typeEEEES2_EERKS7_ = comdat any

$_ZN5rlbox17tainted_base_implINS_7taintedEjNS_20rlbox_wasm2c_sandboxEE23unverified_safe_becauseILm33EEEDaRAT__Kc = comdat any

$_ZN5rlbox17tainted_base_implINS_7taintedEPcNS_20rlbox_wasm2c_sandboxEEntEv = comdat any

$_ZN5rlbox17tainted_base_implINS_7taintedEjNS_20rlbox_wasm2c_sandboxEE23unverified_safe_becauseILm19EEEDaRAT__Kc = comdat any

$_ZN5rlboxmlINS_7taintedEjNS_20rlbox_wasm2c_sandboxEiLPv0EEEDaRKT2_RKNS_17tainted_base_implIT_T0_T1_EE = comdat any

$_ZNK5rlbox17tainted_base_implINS_7taintedEjNS_20rlbox_wasm2c_sandboxEEplIiEENS1_IDTplclL_ZSt7declvalIjEDTcl9__declvalIT_ELi0EEEvEEclsr3stdE7declvalINS_6detail27detail_rlbox_remove_wrapper9unwrapperIS6_E4typeEEEES2_EERKS6_ = comdat any

$_ZN5rlbox17tainted_base_implINS_7taintedEPcNS_20rlbox_wasm2c_sandboxEEixIRNS1_IjS3_EEEERNS_16tainted_volatileIcS3_EEOT_ = comdat any

$_ZN5rlbox17tainted_base_implINS_16tainted_volatileEcNS_20rlbox_wasm2c_sandboxEE23unverified_safe_becauseILm28EEEDaRAT__Kc = comdat any

$_ZN5rlbox13rlbox_sandboxINS_20rlbox_wasm2c_sandboxEE15free_in_sandboxI11ImageHeaderEEvNS_7taintedIPT_S1_EE = comdat any

$_ZN5rlbox13rlbox_sandboxINS_20rlbox_wasm2c_sandboxEE15free_in_sandboxIcEEvNS_7taintedIPT_S1_EE = comdat any

$_ZN5rlbox13rlbox_sandboxINS_20rlbox_wasm2c_sandboxEE15destroy_sandboxEv = comdat any

$_ZN5rlbox13rlbox_sandboxINS_20rlbox_wasm2c_sandboxEED2Ev = comdat any

$_ZN5rlbox13rlbox_sandboxINS_20rlbox_wasm2c_sandboxEE12sandbox_listE = comdat any

$_ZNSt6vectorIPvSaIS0_EEC2Ev = comdat any

$_ZNSt6vectorIPvSaIS0_EED2Ev = comdat any

$_ZNK5rlbox17tainted_base_implINS_7taintedEjNS_20rlbox_wasm2c_sandboxEE4implEv = comdat any

$_ZNK5rlbox7taintedIjNS_20rlbox_wasm2c_sandboxEE13get_raw_valueEv = comdat any

$_ZN5rlbox20rlbox_wasm2c_sandboxC2Ev = comdat any

$_ZNSt18shared_timed_mutexC2Ev = comdat any

$_ZNSt3mapINSt7__cxx1112basic_stringIcSt11char_traitsIcESaIcEEEPvSt4lessIS5_ESaISt4pairIKS5_S6_EEEC2Ev = comdat any

$_ZN5rlbox15app_pointer_mapIjEC2Ev = comdat any

$_ZNSt6atomicIN5rlbox13rlbox_sandboxINS0_20rlbox_wasm2c_sandboxEE14Sandbox_StatusEEC2ES4_ = comdat any

$_ZNSt5mutexC2Ev = comdat any

$_ZNSt3mapINSt7__cxx1112basic_stringIcSt11char_traitsIcESaIcEEEPvSt4lessIS5_ESaISt4pairIKS5_S6_EEED2Ev = comdat any

$_ZN5rlbox20rlbox_wasm2c_sandboxD2Ev = comdat any

$_ZNSt3mapIPKvjSt4lessIS1_ESaISt4pairIKS1_jEEEC2Ev = comdat any

$_ZNSt3mapIjPKvSt4lessIjESaISt4pairIKjS1_EEEC2Ev = comdat any

$_ZNSt8_Rb_treeIPKvSt4pairIKS1_jESt10_Select1stIS4_ESt4lessIS1_ESaIS4_EEC2Ev = comdat any

$_ZNSt8_Rb_treeIPKvSt4pairIKS1_jESt10_Select1stIS4_ESt4lessIS1_ESaIS4_EE13_Rb_tree_implIS8_Lb1EEC2Ev = comdat any

$_ZNSaISt13_Rb_tree_nodeISt4pairIKPKvjEEEC2Ev = comdat any

$_ZNSt20_Rb_tree_key_compareISt4lessIPKvEEC2Ev = comdat any

$_ZNSt15_Rb_tree_headerC2Ev = comdat any

$_ZN9__gnu_cxx13new_allocatorISt13_Rb_tree_nodeISt4pairIKPKvjEEEC2Ev = comdat any

$_ZNSt15_Rb_tree_header8_M_resetEv = comdat any

$__clang_call_terminate = comdat any

$_ZNSt8_Rb_treeIjSt4pairIKjPKvESt10_Select1stIS4_ESt4lessIjESaIS4_EEC2Ev = comdat any

$_ZNSt8_Rb_treeIjSt4pairIKjPKvESt10_Select1stIS4_ESt4lessIjESaIS4_EE13_Rb_tree_implIS8_Lb1EEC2Ev = comdat any

$_ZNSaISt13_Rb_tree_nodeISt4pairIKjPKvEEEC2Ev = comdat any

$_ZNSt20_Rb_tree_key_compareISt4lessIjEEC2Ev = comdat any

$_ZN9__gnu_cxx13new_allocatorISt13_Rb_tree_nodeISt4pairIKjPKvEEEC2Ev = comdat any

$_ZNSt22__shared_mutex_pthreadC2Ev = comdat any

$_ZNSt8_Rb_treeINSt7__cxx1112basic_stringIcSt11char_traitsIcESaIcEEESt4pairIKS5_PvESt10_Select1stIS9_ESt4lessIS5_ESaIS9_EEC2Ev = comdat any

$_ZNSt8_Rb_treeINSt7__cxx1112basic_stringIcSt11char_traitsIcESaIcEEESt4pairIKS5_PvESt10_Select1stIS9_ESt4lessIS5_ESaIS9_EE13_Rb_tree_implISD_Lb1EEC2Ev = comdat any

$_ZNSaISt13_Rb_tree_nodeISt4pairIKNSt7__cxx1112basic_stringIcSt11char_traitsIcESaIcEEEPvEEEC2Ev = comdat any

$_ZNSt20_Rb_tree_key_compareISt4lessINSt7__cxx1112basic_stringIcSt11char_traitsIcESaIcEEEEEC2Ev = comdat any

$_ZN9__gnu_cxx13new_allocatorISt13_Rb_tree_nodeISt4pairIKNSt7__cxx1112basic_stringIcSt11char_traitsIcESaIcEEEPvEEEC2Ev = comdat any

$_ZNSt3mapIjPvSt4lessIjESaISt4pairIKjS0_EEEC2Ev = comdat any

$_ZNSt3mapIjPvSt4lessIjESaISt4pairIKjS0_EEEixEOj = comdat any

$_ZNSt3mapIjPvSt4lessIjESaISt4pairIKjS0_EEED2Ev = comdat any

$_ZNSt8_Rb_treeIjSt4pairIKjPvESt10_Select1stIS3_ESt4lessIjESaIS3_EEC2Ev = comdat any

$_ZNSt8_Rb_treeIjSt4pairIKjPvESt10_Select1stIS3_ESt4lessIjESaIS3_EE13_Rb_tree_implIS7_Lb1EEC2Ev = comdat any

$_ZNSaISt13_Rb_tree_nodeISt4pairIKjPvEEEC2Ev = comdat any

$_ZN9__gnu_cxx13new_allocatorISt13_Rb_tree_nodeISt4pairIKjPvEEEC2Ev = comdat any

$_ZNSt3mapIjPvSt4lessIjESaISt4pairIKjS0_EEE11lower_boundERS4_ = comdat any

$_ZSteqRKSt17_Rb_tree_iteratorISt4pairIKjPvEES6_ = comdat any

$_ZNSt3mapIjPvSt4lessIjESaISt4pairIKjS0_EEE3endEv = comdat any

$_ZNKSt3mapIjPvSt4lessIjESaISt4pairIKjS0_EEE8key_compEv = comdat any

$_ZNKSt4lessIjEclERKjS2_ = comdat any

$_ZNKSt17_Rb_tree_iteratorISt4pairIKjPvEEdeEv = comdat any

$_ZNSt8_Rb_treeIjSt4pairIKjPvESt10_Select1stIS3_ESt4lessIjESaIS3_EE22_M_emplace_hint_uniqueIJRKSt21piecewise_construct_tSt5tupleIJOjEESE_IJEEEEESt17_Rb_tree_iteratorIS3_ESt23_Rb_tree_const_iteratorIS3_EDpOT_ = comdat any

$_ZNSt23_Rb_tree_const_iteratorISt4pairIKjPvEEC2ERKSt17_Rb_tree_iteratorIS3_E = comdat any

$_ZSt16forward_as_tupleIJjEESt5tupleIJDpOT_EES3_ = comdat any

$_ZSt4moveIRjEONSt16remove_referenceIT_E4typeEOS2_ = comdat any

$_ZNSt8_Rb_treeIjSt4pairIKjPvESt10_Select1stIS3_ESt4lessIjESaIS3_EE11lower_boundERS1_ = comdat any

$_ZNSt8_Rb_treeIjSt4pairIKjPvESt10_Select1stIS3_ESt4lessIjESaIS3_EE14_M_lower_boundEPSt13_Rb_tree_nodeIS3_EPSt18_Rb_tree_node_baseRS1_ = comdat any

$_ZNSt8_Rb_treeIjSt4pairIKjPvESt10_Select1stIS3_ESt4lessIjESaIS3_EE8_M_beginEv = comdat any

$_ZNSt8_Rb_treeIjSt4pairIKjPvESt10_Select1stIS3_ESt4lessIjESaIS3_EE6_M_endEv = comdat any

$_ZNSt8_Rb_treeIjSt4pairIKjPvESt10_Select1stIS3_ESt4lessIjESaIS3_EE6_S_keyEPKSt13_Rb_tree_nodeIS3_E = comdat any

$_ZNSt8_Rb_treeIjSt4pairIKjPvESt10_Select1stIS3_ESt4lessIjESaIS3_EE7_S_leftEPSt18_Rb_tree_node_base = comdat any

$_ZNSt8_Rb_treeIjSt4pairIKjPvESt10_Select1stIS3_ESt4lessIjESaIS3_EE8_S_rightEPSt18_Rb_tree_node_base = comdat any

$_ZNSt17_Rb_tree_iteratorISt4pairIKjPvEEC2EPSt18_Rb_tree_node_base = comdat any

$_ZNKSt10_Select1stISt4pairIKjPvEEclERKS3_ = comdat any

$_ZNKSt13_Rb_tree_nodeISt4pairIKjPvEE9_M_valptrEv = comdat any

$_ZNK9__gnu_cxx16__aligned_membufISt4pairIKjPvEE6_M_ptrEv = comdat any

$_ZNK9__gnu_cxx16__aligned_membufISt4pairIKjPvEE7_M_addrEv = comdat any

$_ZNSt8_Rb_treeIjSt4pairIKjPvESt10_Select1stIS3_ESt4lessIjESaIS3_EE3endEv = comdat any

$_ZNKSt8_Rb_treeIjSt4pairIKjPvESt10_Select1stIS3_ESt4lessIjESaIS3_EE8key_compEv = comdat any

$_ZNSt13_Rb_tree_nodeISt4pairIKjPvEE9_M_valptrEv = comdat any

$_ZN9__gnu_cxx16__aligned_membufISt4pairIKjPvEE6_M_ptrEv = comdat any

$_ZN9__gnu_cxx16__aligned_membufISt4pairIKjPvEE7_M_addrEv = comdat any

$_ZNSt8_Rb_treeIjSt4pairIKjPvESt10_Select1stIS3_ESt4lessIjESaIS3_EE14_M_create_nodeIJRKSt21piecewise_construct_tSt5tupleIJOjEESE_IJEEEEEPSt13_Rb_tree_nodeIS3_EDpOT_ = comdat any

$_ZSt7forwardIRKSt21piecewise_construct_tEOT_RNSt16remove_referenceIS3_E4typeE = comdat any

$_ZSt7forwardISt5tupleIJOjEEEOT_RNSt16remove_referenceIS3_E4typeE = comdat any

$_ZSt7forwardISt5tupleIJEEEOT_RNSt16remove_referenceIS2_E4typeE = comdat any

$_ZNSt8_Rb_treeIjSt4pairIKjPvESt10_Select1stIS3_ESt4lessIjESaIS3_EE29_M_get_insert_hint_unique_posESt23_Rb_tree_const_iteratorIS3_ERS1_ = comdat any

$_ZNSt8_Rb_treeIjSt4pairIKjPvESt10_Select1stIS3_ESt4lessIjESaIS3_EE14_M_insert_nodeEPSt18_Rb_tree_node_baseSB_PSt13_Rb_tree_nodeIS3_E = comdat any

$_ZNSt8_Rb_treeIjSt4pairIKjPvESt10_Select1stIS3_ESt4lessIjESaIS3_EE12_M_drop_nodeEPSt13_Rb_tree_nodeIS3_E = comdat any

$_ZNSt8_Rb_treeIjSt4pairIKjPvESt10_Select1stIS3_ESt4lessIjESaIS3_EE11_M_get_nodeEv = comdat any

$_ZNSt8_Rb_treeIjSt4pairIKjPvESt10_Select1stIS3_ESt4lessIjESaIS3_EE17_M_construct_nodeIJRKSt21piecewise_construct_tSt5tupleIJOjEESE_IJEEEEEvPSt13_Rb_tree_nodeIS3_EDpOT_ = comdat any

$_ZNSt16allocator_traitsISaISt13_Rb_tree_nodeISt4pairIKjPvEEEE8allocateERS6_m = comdat any

$_ZNSt8_Rb_treeIjSt4pairIKjPvESt10_Select1stIS3_ESt4lessIjESaIS3_EE21_M_get_Node_allocatorEv = comdat any

$_ZN9__gnu_cxx13new_allocatorISt13_Rb_tree_nodeISt4pairIKjPvEEE8allocateEmPKv = comdat any

$_ZNK9__gnu_cxx13new_allocatorISt13_Rb_tree_nodeISt4pairIKjPvEEE8max_sizeEv = comdat any

$_ZNSt16allocator_traitsISaISt13_Rb_tree_nodeISt4pairIKjPvEEEE9constructIS4_JRKSt21piecewise_construct_tSt5tupleIJOjEESC_IJEEEEEvRS6_PT_DpOT0_ = comdat any

$_ZNSt8_Rb_treeIjSt4pairIKjPvESt10_Select1stIS3_ESt4lessIjESaIS3_EE11_M_put_nodeEPSt13_Rb_tree_nodeIS3_E = comdat any

$_ZN9__gnu_cxx13new_allocatorISt13_Rb_tree_nodeISt4pairIKjPvEEE9constructIS5_JRKSt21piecewise_construct_tSt5tupleIJOjEESC_IJEEEEEvPT_DpOT0_ = comdat any

$_ZNSt5tupleIJOjEEC2EOS1_ = comdat any

$_ZNSt4pairIKjPvEC2IJOjEJEEESt21piecewise_construct_tSt5tupleIJDpT_EES6_IJDpT0_EE = comdat any

$_ZNSt11_Tuple_implILm0EJOjEEC2EOS1_ = comdat any

$_ZSt7forwardIOjEOT_RNSt16remove_referenceIS1_E4typeE = comdat any

$_ZNSt11_Tuple_implILm0EJOjEE7_M_headERS1_ = comdat any

$_ZNSt10_Head_baseILm0EOjLb0EEC2IjEEOT_ = comdat any

$_ZNSt10_Head_baseILm0EOjLb0EE7_M_headERS1_ = comdat any

$_ZSt7forwardIjEOT_RNSt16remove_referenceIS0_E4typeE = comdat any

$_ZNSt4pairIKjPvEC2IJOjEJLm0EEJEJEEERSt5tupleIJDpT_EERS5_IJDpT1_EESt12_Index_tupleIJXspT0_EEESE_IJXspT2_EEE = comdat any

$_ZSt3getILm0EJOjEERNSt13tuple_elementIXT_ESt5tupleIJDpT0_EEE4typeERS5_ = comdat any

$_ZSt12__get_helperILm0EOjJEERT0_RSt11_Tuple_implIXT_EJS1_DpT1_EE = comdat any

$_ZNSt16allocator_traitsISaISt13_Rb_tree_nodeISt4pairIKjPvEEEE10deallocateERS6_PS5_m = comdat any

$_ZN9__gnu_cxx13new_allocatorISt13_Rb_tree_nodeISt4pairIKjPvEEE10deallocateEPS6_m = comdat any

$_ZNKSt23_Rb_tree_const_iteratorISt4pairIKjPvEE13_M_const_castEv = comdat any

$_ZNKSt8_Rb_treeIjSt4pairIKjPvESt10_Select1stIS3_ESt4lessIjESaIS3_EE4sizeEv = comdat any

$_ZNSt8_Rb_treeIjSt4pairIKjPvESt10_Select1stIS3_ESt4lessIjESaIS3_EE6_S_keyEPKSt18_Rb_tree_node_base = comdat any

$_ZNSt8_Rb_treeIjSt4pairIKjPvESt10_Select1stIS3_ESt4lessIjESaIS3_EE12_M_rightmostEv = comdat any

$_ZNSt4pairIPSt18_Rb_tree_node_baseS1_EC2IRS1_Lb1EEERKS1_OT_ = comdat any

$_ZNSt8_Rb_treeIjSt4pairIKjPvESt10_Select1stIS3_ESt4lessIjESaIS3_EE24_M_get_insert_unique_posERS1_ = comdat any

$_ZNSt8_Rb_treeIjSt4pairIKjPvESt10_Select1stIS3_ESt4lessIjESaIS3_EE11_M_leftmostEv = comdat any

$_ZNSt4pairIPSt18_Rb_tree_node_baseS1_EC2IRS1_S4_Lb1EEEOT_OT0_ = comdat any

$_ZNSt17_Rb_tree_iteratorISt4pairIKjPvEEmmEv = comdat any

$_ZNSt17_Rb_tree_iteratorISt4pairIKjPvEEppEv = comdat any

$_ZNSt4pairIPSt18_Rb_tree_node_baseS1_EC2IRS1_Lb1EEEOT_RKS1_ = comdat any

$_ZSt7forwardIRPSt18_Rb_tree_node_baseEOT_RNSt16remove_referenceIS3_E4typeE = comdat any

$_ZNSt8_Rb_treeIjSt4pairIKjPvESt10_Select1stIS3_ESt4lessIjESaIS3_EE5beginEv = comdat any

$_ZNSt4pairIPSt18_Rb_tree_node_baseS1_EC2IRPSt13_Rb_tree_nodeIS_IKjPvEERS1_Lb1EEEOT_OT0_ = comdat any

$_ZSt7forwardIRPSt13_Rb_tree_nodeISt4pairIKjPvEEEOT_RNSt16remove_referenceIS8_E4typeE = comdat any

$_ZNSt8_Rb_treeIjSt4pairIKjPvESt10_Select1stIS3_ESt4lessIjESaIS3_EE15_M_destroy_nodeEPSt13_Rb_tree_nodeIS3_E = comdat any

$_ZNSt16allocator_traitsISaISt13_Rb_tree_nodeISt4pairIKjPvEEEE7destroyIS4_EEvRS6_PT_ = comdat any

$_ZN9__gnu_cxx13new_allocatorISt13_Rb_tree_nodeISt4pairIKjPvEEE7destroyIS5_EEvPT_ = comdat any

$_ZNSt5tupleIJOjEEC2IJjELb1EEEDpOT_ = comdat any

$_ZNSt11_Tuple_implILm0EJOjEEC2IjEEOT_ = comdat any

$_ZNSt8_Rb_treeIjSt4pairIKjPvESt10_Select1stIS3_ESt4lessIjESaIS3_EED2Ev = comdat any

$_ZNSt8_Rb_treeIjSt4pairIKjPvESt10_Select1stIS3_ESt4lessIjESaIS3_EE8_M_eraseEPSt13_Rb_tree_nodeIS3_E = comdat any

$_ZNSt8_Rb_treeIjSt4pairIKjPvESt10_Select1stIS3_ESt4lessIjESaIS3_EE13_Rb_tree_implIS7_Lb1EED2Ev = comdat any

$_ZNSaISt13_Rb_tree_nodeISt4pairIKjPvEEED2Ev = comdat any

$_ZN9__gnu_cxx13new_allocatorISt13_Rb_tree_nodeISt4pairIKjPvEEED2Ev = comdat any

$_ZNSt12__mutex_baseC2Ev = comdat any

$_ZNSt8_Rb_treeINSt7__cxx1112basic_stringIcSt11char_traitsIcESaIcEEESt4pairIKS5_PvESt10_Select1stIS9_ESt4lessIS5_ESaIS9_EED2Ev = comdat any

$_ZNSt8_Rb_treeINSt7__cxx1112basic_stringIcSt11char_traitsIcESaIcEEESt4pairIKS5_PvESt10_Select1stIS9_ESt4lessIS5_ESaIS9_EE8_M_eraseEPSt13_Rb_tree_nodeIS9_E = comdat any

$_ZNSt8_Rb_treeINSt7__cxx1112basic_stringIcSt11char_traitsIcESaIcEEESt4pairIKS5_PvESt10_Select1stIS9_ESt4lessIS5_ESaIS9_EE8_M_beginEv = comdat any

$_ZNSt8_Rb_treeINSt7__cxx1112basic_stringIcSt11char_traitsIcESaIcEEESt4pairIKS5_PvESt10_Select1stIS9_ESt4lessIS5_ESaIS9_EE13_Rb_tree_implISD_Lb1EED2Ev = comdat any

$_ZNSt8_Rb_treeINSt7__cxx1112basic_stringIcSt11char_traitsIcESaIcEEESt4pairIKS5_PvESt10_Select1stIS9_ESt4lessIS5_ESaIS9_EE8_S_rightEPSt18_Rb_tree_node_base = comdat any

$_ZNSt8_Rb_treeINSt7__cxx1112basic_stringIcSt11char_traitsIcESaIcEEESt4pairIKS5_PvESt10_Select1stIS9_ESt4lessIS5_ESaIS9_EE7_S_leftEPSt18_Rb_tree_node_base = comdat any

$_ZNSt8_Rb_treeINSt7__cxx1112basic_stringIcSt11char_traitsIcESaIcEEESt4pairIKS5_PvESt10_Select1stIS9_ESt4lessIS5_ESaIS9_EE12_M_drop_nodeEPSt13_Rb_tree_nodeIS9_E = comdat any

$_ZNSt8_Rb_treeINSt7__cxx1112basic_stringIcSt11char_traitsIcESaIcEEESt4pairIKS5_PvESt10_Select1stIS9_ESt4lessIS5_ESaIS9_EE15_M_destroy_nodeEPSt13_Rb_tree_nodeIS9_E = comdat any

$_ZNSt8_Rb_treeINSt7__cxx1112basic_stringIcSt11char_traitsIcESaIcEEESt4pairIKS5_PvESt10_Select1stIS9_ESt4lessIS5_ESaIS9_EE11_M_put_nodeEPSt13_Rb_tree_nodeIS9_E = comdat any

$_ZNSt16allocator_traitsISaISt13_Rb_tree_nodeISt4pairIKNSt7__cxx1112basic_stringIcSt11char_traitsIcESaIcEEEPvEEEE7destroyISA_EEvRSC_PT_ = comdat any

$_ZNSt8_Rb_treeINSt7__cxx1112basic_stringIcSt11char_traitsIcESaIcEEESt4pairIKS5_PvESt10_Select1stIS9_ESt4lessIS5_ESaIS9_EE21_M_get_Node_allocatorEv = comdat any

$_ZNSt13_Rb_tree_nodeISt4pairIKNSt7__cxx1112basic_stringIcSt11char_traitsIcESaIcEEEPvEE9_M_valptrEv = comdat any

$_ZN9__gnu_cxx13new_allocatorISt13_Rb_tree_nodeISt4pairIKNSt7__cxx1112basic_stringIcSt11char_traitsIcESaIcEEEPvEEE7destroyISB_EEvPT_ = comdat any

$_ZNSt4pairIKNSt7__cxx1112basic_stringIcSt11char_traitsIcESaIcEEEPvED2Ev = comdat any

$_ZN9__gnu_cxx16__aligned_membufISt4pairIKNSt7__cxx1112basic_stringIcSt11char_traitsIcESaIcEEEPvEE6_M_ptrEv = comdat any

$_ZN9__gnu_cxx16__aligned_membufISt4pairIKNSt7__cxx1112basic_stringIcSt11char_traitsIcESaIcEEEPvEE7_M_addrEv = comdat any

$_ZNSt16allocator_traitsISaISt13_Rb_tree_nodeISt4pairIKNSt7__cxx1112basic_stringIcSt11char_traitsIcESaIcEEEPvEEEE10deallocateERSC_PSB_m = comdat any

$_ZN9__gnu_cxx13new_allocatorISt13_Rb_tree_nodeISt4pairIKNSt7__cxx1112basic_stringIcSt11char_traitsIcESaIcEEEPvEEE10deallocateEPSC_m = comdat any

$_ZNSaISt13_Rb_tree_nodeISt4pairIKNSt7__cxx1112basic_stringIcSt11char_traitsIcESaIcEEEPvEEED2Ev = comdat any

$_ZN9__gnu_cxx13new_allocatorISt13_Rb_tree_nodeISt4pairIKNSt7__cxx1112basic_stringIcSt11char_traitsIcESaIcEEEPvEEED2Ev = comdat any

$_ZNSt3mapIjPKvSt4lessIjESaISt4pairIKjS1_EEED2Ev = comdat any

$_ZNSt3mapIPKvjSt4lessIS1_ESaISt4pairIKS1_jEEED2Ev = comdat any

$_ZNSt8_Rb_treeIjSt4pairIKjPKvESt10_Select1stIS4_ESt4lessIjESaIS4_EED2Ev = comdat any

$_ZNSt8_Rb_treeIjSt4pairIKjPKvESt10_Select1stIS4_ESt4lessIjESaIS4_EE8_M_eraseEPSt13_Rb_tree_nodeIS4_E = comdat any

$_ZNSt8_Rb_treeIjSt4pairIKjPKvESt10_Select1stIS4_ESt4lessIjESaIS4_EE8_M_beginEv = comdat any

$_ZNSt8_Rb_treeIjSt4pairIKjPKvESt10_Select1stIS4_ESt4lessIjESaIS4_EE13_Rb_tree_implIS8_Lb1EED2Ev = comdat any

$_ZNSt8_Rb_treeIjSt4pairIKjPKvESt10_Select1stIS4_ESt4lessIjESaIS4_EE8_S_rightEPSt18_Rb_tree_node_base = comdat any

$_ZNSt8_Rb_treeIjSt4pairIKjPKvESt10_Select1stIS4_ESt4lessIjESaIS4_EE7_S_leftEPSt18_Rb_tree_node_base = comdat any

$_ZNSt8_Rb_treeIjSt4pairIKjPKvESt10_Select1stIS4_ESt4lessIjESaIS4_EE12_M_drop_nodeEPSt13_Rb_tree_nodeIS4_E = comdat any

$_ZNSt8_Rb_treeIjSt4pairIKjPKvESt10_Select1stIS4_ESt4lessIjESaIS4_EE15_M_destroy_nodeEPSt13_Rb_tree_nodeIS4_E = comdat any

$_ZNSt8_Rb_treeIjSt4pairIKjPKvESt10_Select1stIS4_ESt4lessIjESaIS4_EE11_M_put_nodeEPSt13_Rb_tree_nodeIS4_E = comdat any

$_ZNSt16allocator_traitsISaISt13_Rb_tree_nodeISt4pairIKjPKvEEEE7destroyIS5_EEvRS7_PT_ = comdat any

$_ZNSt8_Rb_treeIjSt4pairIKjPKvESt10_Select1stIS4_ESt4lessIjESaIS4_EE21_M_get_Node_allocatorEv = comdat any

$_ZNSt13_Rb_tree_nodeISt4pairIKjPKvEE9_M_valptrEv = comdat any

$_ZN9__gnu_cxx13new_allocatorISt13_Rb_tree_nodeISt4pairIKjPKvEEE7destroyIS6_EEvPT_ = comdat any

$_ZN9__gnu_cxx16__aligned_membufISt4pairIKjPKvEE6_M_ptrEv = comdat any

$_ZN9__gnu_cxx16__aligned_membufISt4pairIKjPKvEE7_M_addrEv = comdat any

$_ZNSt16allocator_traitsISaISt13_Rb_tree_nodeISt4pairIKjPKvEEEE10deallocateERS7_PS6_m = comdat any

$_ZN9__gnu_cxx13new_allocatorISt13_Rb_tree_nodeISt4pairIKjPKvEEE10deallocateEPS7_m = comdat any

$_ZNSaISt13_Rb_tree_nodeISt4pairIKjPKvEEED2Ev = comdat any

$_ZN9__gnu_cxx13new_allocatorISt13_Rb_tree_nodeISt4pairIKjPKvEEED2Ev = comdat any

$_ZNSt8_Rb_treeIPKvSt4pairIKS1_jESt10_Select1stIS4_ESt4lessIS1_ESaIS4_EED2Ev = comdat any

$_ZNSt8_Rb_treeIPKvSt4pairIKS1_jESt10_Select1stIS4_ESt4lessIS1_ESaIS4_EE8_M_eraseEPSt13_Rb_tree_nodeIS4_E = comdat any

$_ZNSt8_Rb_treeIPKvSt4pairIKS1_jESt10_Select1stIS4_ESt4lessIS1_ESaIS4_EE8_M_beginEv = comdat any

$_ZNSt8_Rb_treeIPKvSt4pairIKS1_jESt10_Select1stIS4_ESt4lessIS1_ESaIS4_EE13_Rb_tree_implIS8_Lb1EED2Ev = comdat any

$_ZNSt8_Rb_treeIPKvSt4pairIKS1_jESt10_Select1stIS4_ESt4lessIS1_ESaIS4_EE8_S_rightEPSt18_Rb_tree_node_base = comdat any

$_ZNSt8_Rb_treeIPKvSt4pairIKS1_jESt10_Select1stIS4_ESt4lessIS1_ESaIS4_EE7_S_leftEPSt18_Rb_tree_node_base = comdat any

$_ZNSt8_Rb_treeIPKvSt4pairIKS1_jESt10_Select1stIS4_ESt4lessIS1_ESaIS4_EE12_M_drop_nodeEPSt13_Rb_tree_nodeIS4_E = comdat any

$_ZNSt8_Rb_treeIPKvSt4pairIKS1_jESt10_Select1stIS4_ESt4lessIS1_ESaIS4_EE15_M_destroy_nodeEPSt13_Rb_tree_nodeIS4_E = comdat any

$_ZNSt8_Rb_treeIPKvSt4pairIKS1_jESt10_Select1stIS4_ESt4lessIS1_ESaIS4_EE11_M_put_nodeEPSt13_Rb_tree_nodeIS4_E = comdat any

$_ZNSt16allocator_traitsISaISt13_Rb_tree_nodeISt4pairIKPKvjEEEE7destroyIS5_EEvRS7_PT_ = comdat any

$_ZNSt8_Rb_treeIPKvSt4pairIKS1_jESt10_Select1stIS4_ESt4lessIS1_ESaIS4_EE21_M_get_Node_allocatorEv = comdat any

$_ZNSt13_Rb_tree_nodeISt4pairIKPKvjEE9_M_valptrEv = comdat any

$_ZN9__gnu_cxx13new_allocatorISt13_Rb_tree_nodeISt4pairIKPKvjEEE7destroyIS6_EEvPT_ = comdat any

$_ZN9__gnu_cxx16__aligned_membufISt4pairIKPKvjEE6_M_ptrEv = comdat any

$_ZN9__gnu_cxx16__aligned_membufISt4pairIKPKvjEE7_M_addrEv = comdat any

$_ZNSt16allocator_traitsISaISt13_Rb_tree_nodeISt4pairIKPKvjEEEE10deallocateERS7_PS6_m = comdat any

$_ZN9__gnu_cxx13new_allocatorISt13_Rb_tree_nodeISt4pairIKPKvjEEE10deallocateEPS7_m = comdat any

$_ZNSaISt13_Rb_tree_nodeISt4pairIKPKvjEEED2Ev = comdat any

$_ZN9__gnu_cxx13new_allocatorISt13_Rb_tree_nodeISt4pairIKPKvjEEED2Ev = comdat any

$_ZN5rlbox13rlbox_sandboxINS_20rlbox_wasm2c_sandboxEE29check_invoke_param_type_is_okIRNS_7taintedIPcS1_EEEEvv = comdat any

$_ZN5rlbox20rlbox_wasm2c_sandbox25impl_invoke_with_func_ptrIFP11ImageHeaderPcS4_EFjjjEJjjEEEDaPT0_DpOT1_ = comdat any

$_ZN5rlbox13rlbox_sandboxINS_20rlbox_wasm2c_sandboxEE20invoke_process_paramIRNS_7taintedIPcS1_EEEEDaOT_ = comdat any

$_ZN5rlbox6detail12convert_typeINS_20rlbox_wasm2c_sandboxELNS0_21adjust_type_directionE1ELNS0_19adjust_type_contextE1EP11ImageHeaderjEEvRT2_RKT3_PKvPNS_13rlbox_sandboxIT_EE = comdat any

$_ZN5rlbox7taintedIP11ImageHeaderNS_20rlbox_wasm2c_sandboxEE17get_raw_value_refEv = comdat any

$_ZN5rlbox6detail15make_scope_exitIZNS_20rlbox_wasm2c_sandbox25impl_invoke_with_func_ptrIFP11ImageHeaderPcS6_EFjjjEJjjEEEDaPT0_DpOT1_EUlvE_EENS0_10scope_exitIT_EEOSG_ = comdat any

$_ZZN5rlbox20rlbox_wasm2c_sandbox25impl_invoke_with_func_ptrIFP11ImageHeaderPcS4_EFjjjEJjjEEEDaPT0_DpOT1_ENKUlT_E_clIjEENSt11conditionalIXsr3std8is_classIDtfp_EEE5valueEjSG_E4typeESC_ = comdat any

$_ZN5rlbox20rlbox_wasm2c_sandbox20impl_free_in_sandboxEj = comdat any

$_ZN5rlbox6detail10scope_exitIZNS_20rlbox_wasm2c_sandbox25impl_invoke_with_func_ptrIFP11ImageHeaderPcS6_EFjjjEJjjEEEDaPT0_DpOT1_EUlvE_ED2Ev = comdat any

$_ZSt4moveIRZN5rlbox20rlbox_wasm2c_sandbox25impl_invoke_with_func_ptrIFP11ImageHeaderPcS5_EFjjjEJjjEEEDaPT0_DpOT1_EUlvE_EONSt16remove_referenceIT_E4typeEOSG_ = comdat any

$_ZN5rlbox6detail10scope_exitIZNS_20rlbox_wasm2c_sandbox25impl_invoke_with_func_ptrIFP11ImageHeaderPcS6_EFjjjEJjjEEEDaPT0_DpOT1_EUlvE_EC2EOSE_ = comdat any

$_ZN5rlbox20rlbox_wasm2c_sandbox25impl_invoke_with_func_ptrIFvPvEFvjEJRjEEEDaPT0_DpOT1_ = comdat any

$_ZN5rlbox6detail15make_scope_exitIZNS_20rlbox_wasm2c_sandbox25impl_invoke_with_func_ptrIFvPvEFvjEJRjEEEDaPT0_DpOT1_EUlvE_EENS0_10scope_exitIT_EEOSF_ = comdat any

$_ZZN5rlbox20rlbox_wasm2c_sandbox25impl_invoke_with_func_ptrIFvPvEFvjEJRjEEEDaPT0_DpOT1_ENKUlT_E_clIjEENSt11conditionalIXsr3std8is_classIDtfp_EEE5valueEjSF_E4typeESB_ = comdat any

$_ZN5rlbox6detail10scope_exitIZNS_20rlbox_wasm2c_sandbox25impl_invoke_with_func_ptrIFvPvEFvjEJRjEEEDaPT0_DpOT1_EUlvE_ED2Ev = comdat any

$_ZSt4moveIRZN5rlbox20rlbox_wasm2c_sandbox25impl_invoke_with_func_ptrIFvPvEFvjEJRjEEEDaPT0_DpOT1_EUlvE_EONSt16remove_referenceIT_E4typeEOSF_ = comdat any

$_ZN5rlbox6detail10scope_exitIZNS_20rlbox_wasm2c_sandbox25impl_invoke_with_func_ptrIFvPvEFvjEJRjEEEDaPT0_DpOT1_EUlvE_EC2EOSD_ = comdat any

$_ZZN5rlbox20rlbox_wasm2c_sandbox25impl_invoke_with_func_ptrIFvPvEFvjEJRjEEEDaPT0_DpOT1_ENKUlvE_clEv = comdat any

$_ZZN5rlbox20rlbox_wasm2c_sandbox25impl_invoke_with_func_ptrIFP11ImageHeaderPcS4_EFjjjEJjjEEEDaPT0_DpOT1_ENKUlvE_clEv = comdat any

$_ZN5rlbox17tainted_base_implINS_7taintedEPcNS_20rlbox_wasm2c_sandboxEE16UNSAFE_sandboxedERNS_13rlbox_sandboxIS3_EE = comdat any

$_ZN5rlbox17tainted_base_implINS_7taintedEPcNS_20rlbox_wasm2c_sandboxEE4implEv = comdat any

$_ZN5rlbox7taintedIPcNS_20rlbox_wasm2c_sandboxEE21get_raw_sandbox_valueERNS_13rlbox_sandboxIS2_EE = comdat any

$_ZNK5rlbox7taintedIPcNS_20rlbox_wasm2c_sandboxEE21get_raw_sandbox_valueERNS_13rlbox_sandboxIS2_EE = comdat any

$_ZN5rlbox6detail22convert_type_non_classINS_20rlbox_wasm2c_sandboxELNS0_21adjust_type_directionE0ELNS0_19adjust_type_contextE1EjPcEEvRT2_RKT3_PKvPNS_13rlbox_sandboxIT_EE = comdat any

$_ZNK5rlbox13rlbox_sandboxINS_20rlbox_wasm2c_sandboxEE21get_sandboxed_pointerIPcEENS_6detail14convert_detail27convert_base_types_t_helperIT_siiljvE4typeEPKv = comdat any

$_ZNK5rlbox20rlbox_wasm2c_sandbox26impl_get_sandboxed_pointerIPcEEjPKv = comdat any

$_ZN5rlbox6detail22convert_type_non_classINS_20rlbox_wasm2c_sandboxELNS0_21adjust_type_directionE1ELNS0_19adjust_type_contextE1EP11ImageHeaderjEEvRT2_RKT3_PKvPNS_13rlbox_sandboxIT_EE = comdat any

$_ZNK5rlbox13rlbox_sandboxINS_20rlbox_wasm2c_sandboxEE23get_unsandboxed_pointerIP11ImageHeaderEET_NS_6detail14convert_detail27convert_base_types_t_helperIS6_siiljvE4typeE = comdat any

$_ZNK5rlbox20rlbox_wasm2c_sandbox28impl_get_unsandboxed_pointerIP11ImageHeaderEEPvj = comdat any

$_ZNK5rlbox17tainted_base_implINS_7taintedEP11ImageHeaderNS_20rlbox_wasm2c_sandboxEEptEv = comdat any

$_ZNK5rlbox17tainted_base_implINS_7taintedEP11ImageHeaderNS_20rlbox_wasm2c_sandboxEE4implEv = comdat any

$_ZNK5rlbox7taintedIP11ImageHeaderNS_20rlbox_wasm2c_sandboxEE13get_raw_valueEv = comdat any

$_ZN5rlbox6detail12unwrap_valueIRKiEEDaOT_ = comdat any

$_ZN5rlbox7taintedIbNS_20rlbox_wasm2c_sandboxEEC2IRbLPv0EEEOT_ = comdat any

$_ZSt7forwardIRbEOT_RNSt16remove_referenceIS1_E4typeE = comdat any

$_ZN5rlbox17tainted_base_implINS_7taintedEbNS_20rlbox_wasm2c_sandboxEE17UNSAFE_unverifiedEv = comdat any

$_ZN5rlbox17tainted_base_implINS_7taintedEbNS_20rlbox_wasm2c_sandboxEE4implEv = comdat any

$_ZN5rlbox7taintedIbNS_20rlbox_wasm2c_sandboxEE13get_raw_valueEv = comdat any

$_ZNK5rlbox7taintedIbNS_20rlbox_wasm2c_sandboxEE13get_raw_valueEv = comdat any

$_ZN5rlbox6detail12unwrap_valueIRKNS_7taintedIjNS_20rlbox_wasm2c_sandboxEEEEEDaOT_ = comdat any

$_ZN5rlbox7taintedIjNS_20rlbox_wasm2c_sandboxEE16internal_factoryIRjEES2_OT_ = comdat any

$_ZNK5rlbox17tainted_base_implINS_7taintedEjNS_20rlbox_wasm2c_sandboxEE24INTERNAL_unverified_safeEv = comdat any

$_ZNK5rlbox17tainted_base_implINS_7taintedEjNS_20rlbox_wasm2c_sandboxEE17UNSAFE_unverifiedEv = comdat any

$_ZSt7forwardIRjEOT_RNSt16remove_referenceIS1_E4typeE = comdat any

$_ZN5rlbox7taintedIjNS_20rlbox_wasm2c_sandboxEEC2IRjLPv0EEEOT_ = comdat any

$_ZN5rlbox17tainted_base_implINS_7taintedEjNS_20rlbox_wasm2c_sandboxEE17UNSAFE_unverifiedEv = comdat any

$_ZN5rlbox17tainted_base_implINS_7taintedEjNS_20rlbox_wasm2c_sandboxEE4implEv = comdat any

$_ZN5rlbox7taintedIjNS_20rlbox_wasm2c_sandboxEE13get_raw_valueEv = comdat any

$_ZNK5rlbox17tainted_base_implINS_7taintedEPcNS_20rlbox_wasm2c_sandboxEEeqIDnEEDaRKT_ = comdat any

$_ZNK5rlbox17tainted_base_implINS_7taintedEPcNS_20rlbox_wasm2c_sandboxEE4implEv = comdat any

$_ZNK5rlbox7taintedIPcNS_20rlbox_wasm2c_sandboxEE13get_raw_valueEv = comdat any

$_ZN5rlbox6detail12unwrap_valueIRKDnEEDaOT_ = comdat any

$_ZN5rlbox7taintedIiNS_20rlbox_wasm2c_sandboxEEC2IRKiLPv0EEEOT_ = comdat any

$_ZNK5rlbox17tainted_base_implINS_7taintedEiNS_20rlbox_wasm2c_sandboxEEmlINS1_IjS2_EEEENS1_IDTmlclL_ZSt7declvalIiEDTcl9__declvalIT_ELi0EEEvEEclsr3stdE7declvalINS_6detail27detail_rlbox_remove_wrapper9unwrapperIS7_E4typeEEEES2_EERKS7_ = comdat any

$_ZSt7forwardIRKiEOT_RNSt16remove_referenceIS2_E4typeE = comdat any

$_ZNK5rlbox17tainted_base_implINS_7taintedEiNS_20rlbox_wasm2c_sandboxEE4implEv = comdat any

$_ZNK5rlbox7taintedIiNS_20rlbox_wasm2c_sandboxEE13get_raw_valueEv = comdat any

$_ZN5rlbox17tainted_base_implINS_16tainted_volatileEcNS_20rlbox_wasm2c_sandboxEE17UNSAFE_unverifiedEv = comdat any

$_ZN5rlbox17tainted_base_implINS_16tainted_volatileEcNS_20rlbox_wasm2c_sandboxEE4implEv = comdat any

$_ZN5rlbox16tainted_volatileIcNS_20rlbox_wasm2c_sandboxEE13get_raw_valueEv = comdat any

$_ZNK5rlbox16tainted_volatileIcNS_20rlbox_wasm2c_sandboxEE13get_raw_valueEv = comdat any

$_ZN5rlbox6detail22convert_type_non_classINS_20rlbox_wasm2c_sandboxELNS0_21adjust_type_directionE1ELNS0_19adjust_type_contextE0EcVcEEvRT2_RKT3_PKvPNS_13rlbox_sandboxIT_EE = comdat any

$_ZN5rlbox6detail33convert_type_fundamental_or_arrayIcVcEEvRT_RKT0_ = comdat any

$_ZN5rlbox6detail24convert_type_fundamentalIccEEvRT_RVKT0_ = comdat any

$_ZNSt6atomicIN5rlbox13rlbox_sandboxINS0_20rlbox_wasm2c_sandboxEE14Sandbox_StatusEE23compare_exchange_strongERS4_S4_St12memory_order = comdat any

$_ZN5rlbox6detail13dynamic_checkEbPKc = comdat any

$_ZNSt11unique_lockISt18shared_timed_mutexEC2ERS0_ = comdat any

$_ZSt4findIN9__gnu_cxx17__normal_iteratorIPPvSt6vectorIS2_SaIS2_EEEEPN5rlbox13rlbox_sandboxINS8_20rlbox_wasm2c_sandboxEEEET_SD_SD_RKT0_ = comdat any

$_ZNSt6vectorIPvSaIS0_EE5beginEv = comdat any

$_ZNSt6vectorIPvSaIS0_EE3endEv = comdat any

$_ZN9__gnu_cxxneIPPvSt6vectorIS1_SaIS1_EEEEbRKNS_17__normal_iteratorIT_T0_EESB_ = comdat any

$_ZNSt6vectorIPvSaIS0_EE5eraseEN9__gnu_cxx17__normal_iteratorIPKS0_S2_EE = comdat any

$_ZN9__gnu_cxx17__normal_iteratorIPKPvSt6vectorIS1_SaIS1_EEEC2IPS1_EERKNS0_IT_NS_11__enable_ifIXsr3std10__are_sameISA_S9_EE7__valueES6_E6__typeEEE = comdat any

$_ZNSt11unique_lockISt18shared_timed_mutexED2Ev = comdat any

$_ZNSt6atomicIN5rlbox13rlbox_sandboxINS0_20rlbox_wasm2c_sandboxEE14Sandbox_StatusEE5storeES4_St12memory_order = comdat any

$_ZN5rlbox20rlbox_wasm2c_sandbox20impl_destroy_sandboxEv = comdat any

$_ZNSt6atomicIN5rlbox13rlbox_sandboxINS0_20rlbox_wasm2c_sandboxEE14Sandbox_StatusEE23compare_exchange_strongERS4_S4_St12memory_orderS7_ = comdat any

$_ZSt23__cmpexch_failure_orderSt12memory_order = comdat any

$_ZSt11__addressofIN5rlbox13rlbox_sandboxINS0_20rlbox_wasm2c_sandboxEE14Sandbox_StatusEEPT_RS5_ = comdat any

$_ZStorSt12memory_orderSt23__memory_order_modifier = comdat any

$_ZSt24__cmpexch_failure_order2St12memory_order = comdat any

$_ZStanSt12memory_orderSt23__memory_order_modifier = comdat any

$_ZSt11__addressofISt18shared_timed_mutexEPT_RS1_ = comdat any

$_ZNSt11unique_lockISt18shared_timed_mutexE4lockEv = comdat any

$_ZNSt18shared_timed_mutex4lockEv = comdat any

$_ZNSt22__shared_mutex_pthread4lockEv = comdat any

$_ZSt9__find_ifIN9__gnu_cxx17__normal_iteratorIPPvSt6vectorIS2_SaIS2_EEEENS0_5__ops16_Iter_equals_valIKPN5rlbox13rlbox_sandboxINSA_20rlbox_wasm2c_sandboxEEEEEET_SH_SH_T0_ = comdat any

$_ZN9__gnu_cxx5__ops17__iter_equals_valIKPN5rlbox13rlbox_sandboxINS2_20rlbox_wasm2c_sandboxEEEEENS0_16_Iter_equals_valIT_EERS9_ = comdat any

$_ZSt9__find_ifIN9__gnu_cxx17__normal_iteratorIPPvSt6vectorIS2_SaIS2_EEEENS0_5__ops16_Iter_equals_valIKPN5rlbox13rlbox_sandboxINSA_20rlbox_wasm2c_sandboxEEEEEET_SH_SH_T0_St26random_access_iterator_tag = comdat any

$_ZSt19__iterator_categoryIN9__gnu_cxx17__normal_iteratorIPPvSt6vectorIS2_SaIS2_EEEEENSt15iterator_traitsIT_E17iterator_categoryERKS9_ = comdat any

$_ZN9__gnu_cxxmiIPPvSt6vectorIS1_SaIS1_EEEENS_17__normal_iteratorIT_T0_E15difference_typeERKS9_SC_ = comdat any

$_ZN9__gnu_cxx5__ops16_Iter_equals_valIKPN5rlbox13rlbox_sandboxINS2_20rlbox_wasm2c_sandboxEEEEclINS_17__normal_iteratorIPPvSt6vectorISB_SaISB_EEEEEEbT_ = comdat any

$_ZN9__gnu_cxx17__normal_iteratorIPPvSt6vectorIS1_SaIS1_EEEppEv = comdat any

$_ZNK9__gnu_cxx17__normal_iteratorIPPvSt6vectorIS1_SaIS1_EEE4baseEv = comdat any

$_ZNK9__gnu_cxx17__normal_iteratorIPPvSt6vectorIS1_SaIS1_EEEdeEv = comdat any

$_ZN9__gnu_cxx5__ops16_Iter_equals_valIKPN5rlbox13rlbox_sandboxINS2_20rlbox_wasm2c_sandboxEEEEC2ERS7_ = comdat any

$_ZN9__gnu_cxx17__normal_iteratorIPPvSt6vectorIS1_SaIS1_EEEC2ERKS2_ = comdat any

$_ZNSt6vectorIPvSaIS0_EE8_M_eraseEN9__gnu_cxx17__normal_iteratorIPS0_S2_EE = comdat any

$_ZNK9__gnu_cxx17__normal_iteratorIPPvSt6vectorIS1_SaIS1_EEEplEl = comdat any

$_ZN9__gnu_cxxmiIPKPvSt6vectorIS1_SaIS1_EEEENS_17__normal_iteratorIT_T0_E15difference_typeERKSA_SD_ = comdat any

$_ZNKSt6vectorIPvSaIS0_EE6cbeginEv = comdat any

$_ZSt4moveIN9__gnu_cxx17__normal_iteratorIPPvSt6vectorIS2_SaIS2_EEEES7_ET0_T_S9_S8_ = comdat any

$_ZNSt16allocator_traitsISaIPvEE7destroyIS0_EEvRS1_PT_ = comdat any

$_ZSt14__copy_move_a2ILb1EN9__gnu_cxx17__normal_iteratorIPPvSt6vectorIS2_SaIS2_EEEES7_ET1_T0_S9_S8_ = comdat any

$_ZSt12__miter_baseIN9__gnu_cxx17__normal_iteratorIPPvSt6vectorIS2_SaIS2_EEEEET_S8_ = comdat any

$_ZSt12__niter_wrapIN9__gnu_cxx17__normal_iteratorIPPvSt6vectorIS2_SaIS2_EEEES3_ET_S8_T0_ = comdat any

$_ZSt13__copy_move_aILb1EPPvS1_ET1_T0_S3_S2_ = comdat any

$_ZSt12__niter_baseIPPvSt6vectorIS0_SaIS0_EEET_N9__gnu_cxx17__normal_iteratorIS5_T0_EE = comdat any

$_ZNSt11__copy_moveILb1ELb1ESt26random_access_iterator_tagE8__copy_mIPvEEPT_PKS4_S7_S5_ = comdat any

$_ZN9__gnu_cxx13new_allocatorIPvE7destroyIS1_EEvPT_ = comdat any

$_ZNK9__gnu_cxx17__normal_iteratorIPKPvSt6vectorIS1_SaIS1_EEE4baseEv = comdat any

$_ZN9__gnu_cxx17__normal_iteratorIPKPvSt6vectorIS1_SaIS1_EEEC2ERKS3_ = comdat any

$_ZNSt11unique_lockISt18shared_timed_mutexE6unlockEv = comdat any

$_ZNSt18shared_timed_mutex6unlockEv = comdat any

$_ZNSt22__shared_mutex_pthread6unlockEv = comdat any

$_ZN5rlbox15app_pointer_mapIjED2Ev = comdat any

$_ZN5rlbox20rlbox_wasm2c_sandbox19impl_create_sandboxEbmPKc = comdat any

$_ZNSt6vectorIPvSaIS0_EE9push_backEOS0_ = comdat any

$_ZNSt7__cxx1112basic_stringIcSt11char_traitsIcESaIcEEC2IS3_EEPKcRKS3_ = comdat any

$_ZN5rlbox20rlbox_wasm2c_sandbox35rlbox_wasm2c_get_adjusted_heap_sizeEm = comdat any

$_ZN5rlbox20rlbox_wasm2c_sandbox32rlbox_wasm2c_get_heap_page_countEm = comdat any

$_ZNK5rlbox20rlbox_wasm2c_sandbox24impl_get_memory_locationEv = comdat any

$_ZNSt14numeric_limitsIjE3maxEv = comdat any

$_ZNSt7__cxx1112basic_stringIcSt11char_traitsIcESaIcEE12_M_constructIPKcEEvT_S8_ = comdat any

$_ZNSt11char_traitsIcE6lengthEPKc = comdat any

$_ZNSt7__cxx1112basic_stringIcSt11char_traitsIcESaIcEE12_Alloc_hiderD2Ev = comdat any

$_ZNSt7__cxx1112basic_stringIcSt11char_traitsIcESaIcEE16_M_construct_auxIPKcEEvT_S8_St12__false_type = comdat any

$_ZNSt7__cxx1112basic_stringIcSt11char_traitsIcESaIcEE12_M_constructIPKcEEvT_S8_St20forward_iterator_tag = comdat any

$_ZN9__gnu_cxx17__is_null_pointerIKcEEbPT_ = comdat any

$_ZSt8distanceIPKcENSt15iterator_traitsIT_E15difference_typeES3_S3_ = comdat any

$_ZSt10__distanceIPKcENSt15iterator_traitsIT_E15difference_typeES3_S3_St26random_access_iterator_tag = comdat any

$_ZSt19__iterator_categoryIPKcENSt15iterator_traitsIT_E17iterator_categoryERKS3_ = comdat any

$_ZN9__gnu_cxx11char_traitsIcE6lengthEPKc = comdat any

$_ZN9__gnu_cxx11char_traitsIcE2eqERKcS3_ = comdat any

$_ZN5rlbox20rlbox_wasm2c_sandbox17next_power_of_twoEj = comdat any

$_ZNSt6vectorIPvSaIS0_EE12emplace_backIJS0_EEERS0_DpOT_ = comdat any

$_ZSt4moveIRPvEONSt16remove_referenceIT_E4typeEOS3_ = comdat any

$_ZNSt16allocator_traitsISaIPvEE9constructIS0_JS0_EEEvRS1_PT_DpOT0_ = comdat any

$_ZSt7forwardIPvEOT_RNSt16remove_referenceIS1_E4typeE = comdat any

$_ZNSt6vectorIPvSaIS0_EE17_M_realloc_insertIJS0_EEEvN9__gnu_cxx17__normal_iteratorIPS0_S2_EEDpOT_ = comdat any

$_ZNSt6vectorIPvSaIS0_EE4backEv = comdat any

$_ZN9__gnu_cxx13new_allocatorIPvE9constructIS1_JS1_EEEvPT_DpOT0_ = comdat any

$_ZNKSt6vectorIPvSaIS0_EE12_M_check_lenEmPKc = comdat any

$_ZNSt12_Vector_baseIPvSaIS0_EE11_M_allocateEm = comdat any

$_ZNSt6vectorIPvSaIS0_EE11_S_relocateEPS0_S3_S3_RS1_ = comdat any

$_ZNSt12_Vector_baseIPvSaIS0_EE19_M_get_Tp_allocatorEv = comdat any

$_ZNSt12_Vector_baseIPvSaIS0_EE13_M_deallocateEPS0_m = comdat any

$_ZNKSt6vectorIPvSaIS0_EE8max_sizeEv = comdat any

$_ZNKSt6vectorIPvSaIS0_EE4sizeEv = comdat any

$_ZSt3maxImERKT_S2_S2_ = comdat any

$_ZNSt6vectorIPvSaIS0_EE11_S_max_sizeERKS1_ = comdat any

$_ZNKSt12_Vector_baseIPvSaIS0_EE19_M_get_Tp_allocatorEv = comdat any

$_ZNSt16allocator_traitsISaIPvEE8max_sizeERKS1_ = comdat any

$_ZSt3minImERKT_S2_S2_ = comdat any

$_ZNK9__gnu_cxx13new_allocatorIPvE8max_sizeEv = comdat any

$_ZNSt16allocator_traitsISaIPvEE8allocateERS1_m = comdat any

$_ZN9__gnu_cxx13new_allocatorIPvE8allocateEmPKv = comdat any

$_ZNSt6vectorIPvSaIS0_EE14_S_do_relocateEPS0_S3_S3_RS1_St17integral_constantIbLb1EE = comdat any

$_ZSt12__relocate_aIPPvS1_SaIS0_EET0_T_S4_S3_RT1_ = comdat any

$_ZSt14__relocate_a_1IPvS0_ENSt9enable_ifIXsr3std24__is_bitwise_relocatableIT_EE5valueEPS2_E4typeES3_S3_S3_RSaIT0_E = comdat any

$_ZSt12__niter_baseIPPvET_S2_ = comdat any

$_ZNSt16allocator_traitsISaIPvEE10deallocateERS1_PS0_m = comdat any

$_ZN9__gnu_cxx13new_allocatorIPvE10deallocateEPS1_m = comdat any

$_ZNK9__gnu_cxx17__normal_iteratorIPPvSt6vectorIS1_SaIS1_EEEmiEl = comdat any

$_ZNKSt6atomicIN5rlbox13rlbox_sandboxINS0_20rlbox_wasm2c_sandboxEE14Sandbox_StatusEE4loadESt12memory_order = comdat any

$_ZN5rlbox7taintedIPcNS_20rlbox_wasm2c_sandboxEE16internal_factoryIDnEES3_OT_ = comdat any

$_ZN5rlbox20rlbox_wasm2c_sandbox22impl_malloc_in_sandboxEm = comdat any

$_ZNK5rlbox13rlbox_sandboxINS_20rlbox_wasm2c_sandboxEE23get_unsandboxed_pointerIPcEET_NS_6detail14convert_detail27convert_base_types_t_helperIS5_siiljvE4typeE = comdat any

$_ZN5rlbox7taintedIPcNS_20rlbox_wasm2c_sandboxEEC2ERKDn = comdat any

$_ZN5rlbox13rlbox_sandboxINS_20rlbox_wasm2c_sandboxEE28is_pointer_in_sandbox_memoryEPKv = comdat any

$_ZN5rlbox13rlbox_sandboxINS_20rlbox_wasm2c_sandboxEE18is_in_same_sandboxEPKvS4_ = comdat any

$_ZN5rlbox7taintedIPcNS_20rlbox_wasm2c_sandboxEE16internal_factoryIRS1_EES3_OT_ = comdat any

$_ZSt11__addressofIKN5rlbox13rlbox_sandboxINS0_20rlbox_wasm2c_sandboxEE14Sandbox_StatusEEPT_RS6_ = comdat any

$_ZSt7forwardIDnEOT_RNSt16remove_referenceIS0_E4typeE = comdat any

$_ZN5rlbox20rlbox_wasm2c_sandbox25impl_invoke_with_func_ptrIFPvmEFjjEJjEEEDaPT0_DpOT1_ = comdat any

$_ZN5rlbox6detail15make_scope_exitIZNS_20rlbox_wasm2c_sandbox25impl_invoke_with_func_ptrIFPvmEFjjEJjEEEDaPT0_DpOT1_EUlvE_EENS0_10scope_exitIT_EEOSE_ = comdat any

$_ZZN5rlbox20rlbox_wasm2c_sandbox25impl_invoke_with_func_ptrIFPvmEFjjEJjEEEDaPT0_DpOT1_ENKUlT_E_clIjEENSt11conditionalIXsr3std8is_classIDtfp_EEE5valueEjSE_E4typeESA_ = comdat any

$_ZN5rlbox6detail10scope_exitIZNS_20rlbox_wasm2c_sandbox25impl_invoke_with_func_ptrIFPvmEFjjEJjEEEDaPT0_DpOT1_EUlvE_ED2Ev = comdat any

$_ZSt4moveIRZN5rlbox20rlbox_wasm2c_sandbox25impl_invoke_with_func_ptrIFPvmEFjjEJjEEEDaPT0_DpOT1_EUlvE_EONSt16remove_referenceIT_E4typeEOSE_ = comdat any

$_ZN5rlbox6detail10scope_exitIZNS_20rlbox_wasm2c_sandbox25impl_invoke_with_func_ptrIFPvmEFjjEJjEEEDaPT0_DpOT1_EUlvE_EC2EOSC_ = comdat any

$_ZZN5rlbox20rlbox_wasm2c_sandbox25impl_invoke_with_func_ptrIFPvmEFjjEJjEEEDaPT0_DpOT1_ENKUlvE_clEv = comdat any

$_ZNK5rlbox20rlbox_wasm2c_sandbox28impl_get_unsandboxed_pointerIPcEEPvj = comdat any

$_ZN5rlbox20rlbox_wasm2c_sandbox33impl_is_pointer_in_sandbox_memoryEPKv = comdat any

$_ZN5rlbox20rlbox_wasm2c_sandbox21impl_get_total_memoryEv = comdat any

$_ZN5rlbox20rlbox_wasm2c_sandbox23impl_is_in_same_sandboxEPKvS2_ = comdat any

$_ZNSt14numeric_limitsImE3maxEv = comdat any

$_ZSt7forwardIRPcEOT_RNSt16remove_referenceIS2_E4typeE = comdat any

$_ZN5rlbox7taintedIPcNS_20rlbox_wasm2c_sandboxEEC2IS1_LPv0EEET_PKv = comdat any

$_ZN5rlbox6detail12unwrap_valueIRjEEDaOT_ = comdat any

$_ZN5rlbox13rlbox_sandboxINS_20rlbox_wasm2c_sandboxEE16get_total_memoryEv = comdat any

$_ZN5rlbox17tainted_base_implINS_7taintedEPcNS_20rlbox_wasm2c_sandboxEE24INTERNAL_unverified_safeEv = comdat any

$_ZN5rlbox6detail41check_range_doesnt_cross_app_sbx_boundaryINS_20rlbox_wasm2c_sandboxEEEvPKvm = comdat any

$_ZN5rlbox6detail12unwrap_valueIRPcEEDaOT_ = comdat any

$_ZN5rlbox17tainted_base_implINS_7taintedEPcNS_20rlbox_wasm2c_sandboxEE17UNSAFE_unverifiedEv = comdat any

$_ZN5rlbox7taintedIPcNS_20rlbox_wasm2c_sandboxEE13get_raw_valueEv = comdat any

$_ZNK5rlbox16tainted_volatileIjNS_20rlbox_wasm2c_sandboxEE21get_sandbox_value_refEv = comdat any

$_ZN5rlbox6detail22convert_type_non_classINS_20rlbox_wasm2c_sandboxELNS0_21adjust_type_directionE1ELNS0_19adjust_type_contextE0EjVjEEvRT2_RKT3_PKvPNS_13rlbox_sandboxIT_EE = comdat any

$_ZN5rlbox7taintedIjNS_20rlbox_wasm2c_sandboxEE17get_raw_value_refEv = comdat any

$_ZN5rlbox6detail33convert_type_fundamental_or_arrayIjVjEEvRT_RKT0_ = comdat any

$_ZN5rlbox6detail24convert_type_fundamentalIjjEEvRT_RVKT0_ = comdat any

$_ZNK5rlbox17tainted_base_implINS_7taintedEPcNS_20rlbox_wasm2c_sandboxEEixIRNS1_IjS3_EEEERKNS_16tainted_volatileIcS3_EEOT_ = comdat any

$_ZN5rlbox6detail12unwrap_valueIRNS_7taintedIjNS_20rlbox_wasm2c_sandboxEEEEEDaOT_ = comdat any

$_ZN5rlbox7taintedIKPcNS_20rlbox_wasm2c_sandboxEE16internal_factoryIS1_EES4_OT_ = comdat any

$_ZN5rlbox17tainted_base_implINS_7taintedEKPcNS_20rlbox_wasm2c_sandboxEEdeEv = comdat any

$_ZN5rlbox17tainted_base_implINS_7taintedEjNS_20rlbox_wasm2c_sandboxEE24INTERNAL_unverified_safeEv = comdat any

$_ZSt7forwardIPcEOT_RNSt16remove_referenceIS1_E4typeE = comdat any

$_ZN5rlbox7taintedIKPcNS_20rlbox_wasm2c_sandboxEEC2IS1_LPv0EEET_PKv = comdat any

$_ZNK5rlbox17tainted_base_implINS_7taintedEKPcNS_20rlbox_wasm2c_sandboxEEdeEv = comdat any

$_ZNK5rlbox17tainted_base_implINS_7taintedEKPcNS_20rlbox_wasm2c_sandboxEE4implEv = comdat any

$_ZNK5rlbox7taintedIKPcNS_20rlbox_wasm2c_sandboxEE13get_raw_valueEv = comdat any

$_ZN5rlbox7taintedIP11ImageHeaderNS_20rlbox_wasm2c_sandboxEE21get_raw_sandbox_valueERNS_13rlbox_sandboxIS3_EE = comdat any

$_ZNK5rlbox7taintedIP11ImageHeaderNS_20rlbox_wasm2c_sandboxEE21get_raw_sandbox_valueERNS_13rlbox_sandboxIS3_EE = comdat any

$_ZN5rlbox6detail22convert_type_non_classINS_20rlbox_wasm2c_sandboxELNS0_21adjust_type_directionE0ELNS0_19adjust_type_contextE1EjP11ImageHeaderEEvRT2_RKT3_PKvPNS_13rlbox_sandboxIT_EE = comdat any

$_ZNK5rlbox13rlbox_sandboxINS_20rlbox_wasm2c_sandboxEE21get_sandboxed_pointerIP11ImageHeaderEENS_6detail14convert_detail27convert_base_types_t_helperIT_siiljvE4typeEPKv = comdat any

$_ZNK5rlbox20rlbox_wasm2c_sandbox26impl_get_sandboxed_pointerIP11ImageHeaderEEjPKv = comdat any

$_ZNSt12_Vector_baseIPvSaIS0_EEC2Ev = comdat any

$_ZNSt12_Vector_baseIPvSaIS0_EE12_Vector_implC2Ev = comdat any

$_ZNSaIPvEC2Ev = comdat any

$_ZNSt12_Vector_baseIPvSaIS0_EE17_Vector_impl_dataC2Ev = comdat any

$_ZN9__gnu_cxx13new_allocatorIPvEC2Ev = comdat any

$_ZSt8_DestroyIPPvS0_EvT_S2_RSaIT0_E = comdat any

$_ZNSt12_Vector_baseIPvSaIS0_EED2Ev = comdat any

$_ZSt8_DestroyIPPvEvT_S2_ = comdat any

$_ZNSt12_Destroy_auxILb1EE9__destroyIPPvEEvT_S4_ = comdat any

$_ZNSt12_Vector_baseIPvSaIS0_EE12_Vector_implD2Ev = comdat any

$_ZNSaIPvED2Ev = comdat any

$_ZN9__gnu_cxx13new_allocatorIPvED2Ev = comdat any

$_ZSt19piecewise_construct = comdat any

$_ZN5rlbox20rlbox_wasm2c_sandbox11thread_dataE = comdat any

$_ZN5rlbox13rlbox_sandboxINS_20rlbox_wasm2c_sandboxEE17sandbox_list_lockE = comdat any

@_ZStL8__ioinit = internal global %"class.std::ios_base::Init" zeroinitializer, align 1
@__dso_handle = external hidden global i8
@_ZN5rlbox20rlbox_wasm2c_sandbox26wasm2c_runtime_initializedE = weak dso_local global %"struct.std::once_flag" zeroinitializer, align 4
@_ZSt4cout = external dso_local global %"class.std::basic_ostream", align 8
@.str = private unnamed_addr constant [16 x i8] c"Image parsing: \00", align 1
@.str.1 = private unnamed_addr constant [13 x i8] c" out of 100\0A\00", align 1
@_ZSt4cerr = external dso_local global %"class.std::basic_ostream", align 8
@.str.2 = private unnamed_addr constant [8 x i8] c"Error: \00", align 1
@_ZL18PROGRAM_STATUS_MSG = internal global [4 x i8*] [i8* getelementptr inbounds ([10 x i8], [10 x i8]* @.str.15, i32 0, i32 0), i8* getelementptr inbounds ([14 x i8], [14 x i8]* @.str.16, i32 0, i32 0), i8* getelementptr inbounds ([17 x i8], [17 x i8]* @.str.17, i32 0, i32 0), i8* getelementptr inbounds ([26 x i8], [26 x i8]* @.str.18, i32 0, i32 0)], align 16
@.str.3 = private unnamed_addr constant [2 x i8] c"\0A\00", align 1
@.str.4 = private unnamed_addr constant [4 x i8] c"%lu\00", align 1
@.str.5 = private unnamed_addr constant [19 x i8] c"parse_image_header\00", align 1
@.str.6 = private unnamed_addr constant [30 x i8] c"Worst case we will early exit\00", align 1
@.str.7 = private unnamed_addr constant [33 x i8] c"Any value is safe for allocation\00", align 1
@.str.8 = private unnamed_addr constant [15 x i8] c"Image pixels: \00", align 1
@.str.9 = private unnamed_addr constant [19 x i8] c"safe for any value\00", align 1
@.str.10 = private unnamed_addr constant [28 x i8] c"pixel value can be anything\00", align 1
@.str.11 = private unnamed_addr constant [2 x i8] c" \00", align 1
@_ZN5rlbox13rlbox_sandboxINS_20rlbox_wasm2c_sandboxEE12sandbox_listE = linkonce_odr dso_local global %"class.std::vector" zeroinitializer, comdat, align 8
@_ZGVN5rlbox13rlbox_sandboxINS_20rlbox_wasm2c_sandboxEE12sandbox_listE = linkonce_odr dso_local global i64 0, comdat($_ZN5rlbox13rlbox_sandboxINS_20rlbox_wasm2c_sandboxEE12sandbox_listE), align 8
@.str.13 = private unnamed_addr constant [26 x i8] c"value >=1 && value <= 100\00", align 1
@.str.14 = private unnamed_addr constant [13 x i8] c"solution.cpp\00", align 1
@"__PRETTY_FUNCTION__._ZZ22image_parsing_progressRN5rlbox13rlbox_sandboxINS_20rlbox_wasm2c_sandboxEEENS_7taintedIjS1_EEENK3$_0clEj" = private unnamed_addr constant [139 x i8] c"auto image_parsing_progress(rlbox_sandbox<sandbox_type_t> &, tainted_img<unsigned int>)::(anonymous class)::operator()(unsigned int) const\00", align 1
@_ZSt19piecewise_construct = linkonce_odr dso_local constant %"struct.std::piecewise_construct_t" undef, comdat, align 1
@.str.15 = private unnamed_addr constant [10 x i8] c"Succeeded\00", align 1
@.str.16 = private unnamed_addr constant [14 x i8] c"Invalid image\00", align 1
@.str.17 = private unnamed_addr constant [17 x i8] c"Incomplete Image\00", align 1
@.str.18 = private unnamed_addr constant [26 x i8] c"Memory allocation failure\00", align 1
@_ZN5rlbox20rlbox_wasm2c_sandbox11thread_dataE = linkonce_odr dso_local thread_local global %"struct.rlbox::rlbox_wasm2c_sandbox_thread_data" zeroinitializer, comdat, align 8
@.str.19 = private unnamed_addr constant [30 x i8] c"value < program_status_length\00", align 1
@"__PRETTY_FUNCTION__._ZZ4mainENK3$_1clEj" = private unnamed_addr constant [81 x i8] c"auto main(int, const char **)::(anonymous class)::operator()(unsigned int) const\00", align 1
@.str.20 = private unnamed_addr constant [53 x i8] c"Over/Underflow when converting between integer types\00", align 1
@.str.21 = private unnamed_addr constant [80 x i8] c"destroy_sandbox called without sandbox creation/is being destroyed concurrently\00", align 1
@.str.22 = private unnamed_addr constant [67 x i8] c"Unexpected state. Destroying a sandbox that was never initialized.\00", align 1
@_ZN5rlbox13rlbox_sandboxINS_20rlbox_wasm2c_sandboxEE17sandbox_list_lockE = linkonce_odr dso_local global { %union.pthread_rwlock_t } zeroinitializer, comdat, align 8
@_ZZL18__gthread_active_pvE20__gthread_active_ptr = internal constant i8* bitcast (i32 (i32*, void (i8*)*)* @__pthread_key_create to i8*), align 8
@.str.24 = private unnamed_addr constant [81 x i8] c"create_sandbox called when sandbox already created/is being created concurrently\00", align 1
@.str.25 = private unnamed_addr constant [1 x i8] zeroinitializer, align 1
@.str.26 = private unnamed_addr constant [28 x i8] c"Sandbox already initialized\00", align 1
@.str.27 = private unnamed_addr constant [55 x i8] c"Static calls not supported with non empty module names\00", align 1
@.str.28 = private unnamed_addr constant [59 x i8] c"wasm2c could not find <MODULE_NAME>get_wasm2c_sandbox_info\00", align 1
@.str.29 = private unnamed_addr constant [35 x i8] c"Wasm allows a max heap size of 4GB\00", align 1
@.str.30 = private unnamed_addr constant [29 x i8] c"Sandbox could not be created\00", align 1
@.str.31 = private unnamed_addr constant [11 x i8] c"w2c_memory\00", align 1
@.str.32 = private unnamed_addr constant [41 x i8] c"Could not get wasm2c sandbox memory info\00", align 1
@.str.33 = private unnamed_addr constant [32 x i8] c"Sandbox heap not aligned to 4GB\00", align 1
@.str.34 = private unnamed_addr constant [42 x i8] c"basic_string::_M_construct null not valid\00", align 1
@.str.35 = private unnamed_addr constant [26 x i8] c"vector::_M_realloc_insert\00", align 1
@.str.36 = private unnamed_addr constant [33 x i8] c"Malloc tried to allocate 0 bytes\00", align 1
@.str.37 = private unnamed_addr constant [51 x i8] c"Malloc returned pointer outside the sandbox memory\00", align 1
@.str.38 = private unnamed_addr constant [65 x i8] c"Malloc returned a pointer whose range goes beyond sandbox memory\00", align 1
@.str.39 = private unnamed_addr constant [45 x i8] c"Attempting to malloc more than the heap size\00", align 1
@.str.40 = private unnamed_addr constant [49 x i8] c"Called memcpy for memory larger than the sandbox\00", align 1
@.str.41 = private unnamed_addr constant [60 x i8] c"Performing memory operation memset/memcpy on a null pointer\00", align 1
@.str.42 = private unnamed_addr constant [36 x i8] c"range has overflowed sandbox bounds\00", align 1
@.str.43 = private unnamed_addr constant [62 x i8] c"Pointer arithmetic overflowed a pointer beyond sandbox memory\00", align 1
@llvm.global_ctors = appending global [2 x { i32, void ()*, i8* }] [{ i32, void ()*, i8* } { i32 65535, void ()* @__cxx_global_var_init.12, i8* bitcast (%"class.std::vector"* @_ZN5rlbox13rlbox_sandboxINS_20rlbox_wasm2c_sandboxEE12sandbox_listE to i8*) }, { i32, void ()*, i8* } { i32 65535, void ()* @_GLOBAL__sub_I_solution.cpp, i8* null }]

; Function Attrs: noinline uwtable
define internal void @__cxx_global_var_init() #0 section ".text.startup" {
entry:
  call void @_ZNSt8ios_base4InitC1Ev(%"class.std::ios_base::Init"* nonnull dereferenceable(1) @_ZStL8__ioinit)
  %0 = call i32 @__cxa_atexit(void (i8*)* bitcast (void (%"class.std::ios_base::Init"*)* @_ZNSt8ios_base4InitD1Ev to void (i8*)*), i8* getelementptr inbounds (%"class.std::ios_base::Init", %"class.std::ios_base::Init"* @_ZStL8__ioinit, i32 0, i32 0), i8* @__dso_handle) #3
  ret void
}

declare dso_local void @_ZNSt8ios_base4InitC1Ev(%"class.std::ios_base::Init"* nonnull dereferenceable(1)) unnamed_addr #1

; Function Attrs: nounwind
declare dso_local void @_ZNSt8ios_base4InitD1Ev(%"class.std::ios_base::Init"* nonnull dereferenceable(1)) unnamed_addr #2

; Function Attrs: nounwind
declare dso_local i32 @__cxa_atexit(void (i8*)*, i8*, i8*) #3

; Function Attrs: noinline optnone uwtable mustprogress
define dso_local void @_Z22image_parsing_progressRN5rlbox13rlbox_sandboxINS_20rlbox_wasm2c_sandboxEEENS_7taintedIjS1_EE(%"class.rlbox::rlbox_sandbox"* nonnull align 8 dereferenceable(3136) %sandbox, i32 %progress.coerce) #4 {
entry:
  %progress = alloca %"class.rlbox::tainted", align 4
  %sandbox.addr = alloca %"class.rlbox::rlbox_sandbox"*, align 8
  %checked_progress = alloca i32, align 4
  %agg.tmp = alloca %class.anon, align 1
  %coerce.dive = getelementptr inbounds %"class.rlbox::tainted", %"class.rlbox::tainted"* %progress, i32 0, i32 0
  store i32 %progress.coerce, i32* %coerce.dive, align 4
  store %"class.rlbox::rlbox_sandbox"* %sandbox, %"class.rlbox::rlbox_sandbox"** %sandbox.addr, align 8
  %0 = bitcast %"class.rlbox::tainted"* %progress to %"class.rlbox::tainted_base_impl"*
  %call = call i32 @"_ZNK5rlbox17tainted_base_implINS_7taintedEjNS_20rlbox_wasm2c_sandboxEE15copy_and_verifyIZ22image_parsing_progressRNS_13rlbox_sandboxIS2_EENS1_IjS2_EEE3$_0EEDaT_"(%"class.rlbox::tainted_base_impl"* nonnull dereferenceable(1) %0)
  store i32 %call, i32* %checked_progress, align 4
  %call1 = call nonnull align 8 dereferenceable(8) %"class.std::basic_ostream"* @_ZStlsISt11char_traitsIcEERSt13basic_ostreamIcT_ES5_PKc(%"class.std::basic_ostream"* nonnull align 8 dereferenceable(8) @_ZSt4cout, i8* getelementptr inbounds ([16 x i8], [16 x i8]* @.str, i64 0, i64 0))
  %1 = load i32, i32* %checked_progress, align 4
  %call2 = call nonnull align 8 dereferenceable(8) %"class.std::basic_ostream"* @_ZNSolsEj(%"class.std::basic_ostream"* nonnull dereferenceable(8) %call1, i32 %1)
  %call3 = call nonnull align 8 dereferenceable(8) %"class.std::basic_ostream"* @_ZStlsISt11char_traitsIcEERSt13basic_ostreamIcT_ES5_PKc(%"class.std::basic_ostream"* nonnull align 8 dereferenceable(8) %call2, i8* getelementptr inbounds ([13 x i8], [13 x i8]* @.str.1, i64 0, i64 0))
  ret void
}

; Function Attrs: noinline optnone uwtable mustprogress
define internal i32 @"_ZNK5rlbox17tainted_base_implINS_7taintedEjNS_20rlbox_wasm2c_sandboxEE15copy_and_verifyIZ22image_parsing_progressRNS_13rlbox_sandboxIS2_EENS1_IjS2_EEE3$_0EEDaT_"(%"class.rlbox::tainted_base_impl"* nonnull dereferenceable(1) %this) #4 align 2 {
entry:
  %verifier = alloca %class.anon, align 1
  %this.addr = alloca %"class.rlbox::tainted_base_impl"*, align 8
  %cond1 = alloca i8, align 1
  %val = alloca i32, align 4
  store %"class.rlbox::tainted_base_impl"* %this, %"class.rlbox::tainted_base_impl"** %this.addr, align 8
  %this1 = load %"class.rlbox::tainted_base_impl"*, %"class.rlbox::tainted_base_impl"** %this.addr, align 8
  store i8 1, i8* %cond1, align 1
  %call = call nonnull align 4 dereferenceable(4) %"class.rlbox::tainted"* @_ZNK5rlbox17tainted_base_implINS_7taintedEjNS_20rlbox_wasm2c_sandboxEE4implEv(%"class.rlbox::tainted_base_impl"* nonnull dereferenceable(1) %this1)
  %call2 = call i32 @_ZNK5rlbox7taintedIjNS_20rlbox_wasm2c_sandboxEE13get_raw_valueEv(%"class.rlbox::tainted"* nonnull dereferenceable(4) %call) #3
  store i32 %call2, i32* %val, align 4
  %0 = load i32, i32* %val, align 4
  %call3 = call i32 @"_ZZ22image_parsing_progressRN5rlbox13rlbox_sandboxINS_20rlbox_wasm2c_sandboxEEENS_7taintedIjS1_EEENK3$_0clEj"(%class.anon* nonnull dereferenceable(1) %verifier, i32 %0)
  ret i32 %call3
}

declare dso_local nonnull align 8 dereferenceable(8) %"class.std::basic_ostream"* @_ZStlsISt11char_traitsIcEERSt13basic_ostreamIcT_ES5_PKc(%"class.std::basic_ostream"* nonnull align 8 dereferenceable(8), i8*) #1

declare dso_local nonnull align 8 dereferenceable(8) %"class.std::basic_ostream"* @_ZNSolsEj(%"class.std::basic_ostream"* nonnull dereferenceable(8), i32) #1

; Function Attrs: noinline nounwind optnone uwtable mustprogress
define dso_local void @_Z15get_image_bytesPc(i8* %input_stream) #5 {
entry:
  %input_stream.addr = alloca i8*, align 8
  store i8* %input_stream, i8** %input_stream.addr, align 8
  ret void
}

; Function Attrs: noinline norecurse optnone uwtable mustprogress
define dso_local i32 @main(i32 %argc, i8** %argv) #6 personality i8* bitcast (i32 (...)* @__gxx_personality_v0 to i8*) {
entry:
  %retval = alloca i32, align 4
  %argc.addr = alloca i32, align 4
  %argv.addr = alloca i8**, align 8
  %sandbox = alloca %"class.rlbox::rlbox_sandbox", align 8
  %exn.slot = alloca i8*, align 8
  %ehselector.slot = alloca i32, align 4
  %input_stream = alloca i8*, align 8
  %cleanup.dest.slot = alloca i32, align 4
  %tainted_input_stream = alloca %"class.rlbox::tainted.24", align 8
  %agg.tmp = alloca %"class.rlbox::tainted.24", align 8
  %coerce = alloca %"class.rlbox::tainted.24", align 8
  %detonation_codes = alloca i32, align 4
  %address = alloca [100 x i8], align 16
  %tainted_address = alloca %"class.rlbox::tainted.24", align 8
  %agg.tmp37 = alloca %"class.rlbox::tainted.24", align 8
  %coerce42 = alloca %"class.rlbox::tainted.24", align 8
  %header = alloca %"class.rlbox::tainted.26", align 8
  %tainted_status_code = alloca %"class.rlbox::tainted", align 4
  %ref.tmp = alloca %"class.rlbox::tainted.30", align 1
  %ref.tmp50 = alloca i32, align 4
  %verified_status_code = alloca i32, align 4
  %agg.tmp57 = alloca %class.anon.32, align 1
  %tainted_height = alloca %"class.rlbox::tainted", align 4
  %tainted_width = alloca %"class.rlbox::tainted", align 4
  %output_size = alloca i32, align 4
  %ref.tmp73 = alloca %"class.rlbox::tainted", align 4
  %tainted_output_stream = alloca %"class.rlbox::tainted.24", align 8
  %i = alloca i32, align 4
  %j = alloca i32, align 4
  %index = alloca %"class.rlbox::tainted", align 4
  %ref.tmp103 = alloca %"class.rlbox::tainted", align 4
  %agg.tmp125 = alloca %"class.rlbox::tainted.26", align 8
  %agg.tmp128 = alloca %"class.rlbox::tainted.24", align 8
  %agg.tmp131 = alloca %"class.rlbox::tainted.24", align 8
  store i32 0, i32* %retval, align 4
  store i32 %argc, i32* %argc.addr, align 4
  store i8** %argv, i8*** %argv.addr, align 8
  call void @_ZN5rlbox13rlbox_sandboxINS_20rlbox_wasm2c_sandboxEEC2Ev(%"class.rlbox::rlbox_sandbox"* nonnull dereferenceable(3136) %sandbox)
  %call = invoke zeroext i1 @_ZN5rlbox13rlbox_sandboxINS_20rlbox_wasm2c_sandboxEE14create_sandboxIJEEEbDpT_(%"class.rlbox::rlbox_sandbox"* nonnull dereferenceable(3136) %sandbox)
          to label %invoke.cont unwind label %lpad

invoke.cont:                                      ; preds = %entry
  %call2 = invoke noalias nonnull i8* @_Znam(i64 100) #22
          to label %invoke.cont1 unwind label %lpad

invoke.cont1:                                     ; preds = %invoke.cont
  store i8* %call2, i8** %input_stream, align 8
  %0 = load i8*, i8** %input_stream, align 8
  %tobool = icmp ne i8* %0, null
  br i1 %tobool, label %if.end, label %if.then

if.then:                                          ; preds = %invoke.cont1
  %call4 = invoke nonnull align 8 dereferenceable(8) %"class.std::basic_ostream"* @_ZStlsISt11char_traitsIcEERSt13basic_ostreamIcT_ES5_PKc(%"class.std::basic_ostream"* nonnull align 8 dereferenceable(8) @_ZSt4cerr, i8* getelementptr inbounds ([8 x i8], [8 x i8]* @.str.2, i64 0, i64 0))
          to label %invoke.cont3 unwind label %lpad

invoke.cont3:                                     ; preds = %if.then
  %1 = load i8*, i8** getelementptr inbounds ([4 x i8*], [4 x i8*]* @_ZL18PROGRAM_STATUS_MSG, i64 0, i64 3), align 8
  %call6 = invoke nonnull align 8 dereferenceable(8) %"class.std::basic_ostream"* @_ZStlsISt11char_traitsIcEERSt13basic_ostreamIcT_ES5_PKc(%"class.std::basic_ostream"* nonnull align 8 dereferenceable(8) %call4, i8* %1)
          to label %invoke.cont5 unwind label %lpad

invoke.cont5:                                     ; preds = %invoke.cont3
  %call8 = invoke nonnull align 8 dereferenceable(8) %"class.std::basic_ostream"* @_ZStlsISt11char_traitsIcEERSt13basic_ostreamIcT_ES5_PKc(%"class.std::basic_ostream"* nonnull align 8 dereferenceable(8) %call6, i8* getelementptr inbounds ([2 x i8], [2 x i8]* @.str.3, i64 0, i64 0))
          to label %invoke.cont7 unwind label %lpad

invoke.cont7:                                     ; preds = %invoke.cont5
  store i32 1, i32* %retval, align 4
  store i32 1, i32* %cleanup.dest.slot, align 4
  br label %cleanup

lpad:                                             ; preds = %invoke.cont133, %invoke.cont130, %delete.end, %invoke.cont123, %for.end122, %for.end, %invoke.cont114, %invoke.cont112, %invoke.cont110, %invoke.cont107, %invoke.cont104, %for.body102, %for.cond98, %for.cond, %invoke.cont92, %if.end91, %invoke.cont87, %invoke.cont85, %if.then84, %invoke.cont79, %invoke.cont77, %invoke.cont74, %invoke.cont72, %invoke.cont70, %invoke.cont69, %invoke.cont67, %if.end66, %invoke.cont62, %invoke.cont60, %invoke.cont58, %if.then56, %invoke.cont51, %invoke.cont49, %invoke.cont47, %invoke.cont44, %invoke.cont40, %if.end36, %invoke.cont32, %invoke.cont30, %if.then29, %invoke.cont21, %if.end19, %invoke.cont15, %invoke.cont13, %if.then12, %if.end, %invoke.cont5, %invoke.cont3, %if.then, %invoke.cont, %entry
  %2 = landingpad { i8*, i32 }
          cleanup
  %3 = extractvalue { i8*, i32 } %2, 0
  store i8* %3, i8** %exn.slot, align 8
  %4 = extractvalue { i8*, i32 } %2, 1
  store i32 %4, i32* %ehselector.slot, align 4
  call void @_ZN5rlbox13rlbox_sandboxINS_20rlbox_wasm2c_sandboxEED2Ev(%"class.rlbox::rlbox_sandbox"* nonnull dereferenceable(3136) %sandbox) #3
  br label %eh.resume

if.end:                                           ; preds = %invoke.cont1
  %5 = load i8*, i8** %input_stream, align 8
  call void @_Z15get_image_bytesPc(i8* %5)
  %call10 = invoke i8* @_ZN5rlbox13rlbox_sandboxINS_20rlbox_wasm2c_sandboxEE17malloc_in_sandboxIcEENS_7taintedIPT_S1_EEj(%"class.rlbox::rlbox_sandbox"* nonnull dereferenceable(3136) %sandbox, i32 100)
          to label %invoke.cont9 unwind label %lpad

invoke.cont9:                                     ; preds = %if.end
  %coerce.dive = getelementptr inbounds %"class.rlbox::tainted.24", %"class.rlbox::tainted.24"* %tainted_input_stream, i32 0, i32 0
  store i8* %call10, i8** %coerce.dive, align 8
  %6 = load i8*, i8** %input_stream, align 8
  %tobool11 = icmp ne i8* %6, null
  br i1 %tobool11, label %if.end19, label %if.then12

if.then12:                                        ; preds = %invoke.cont9
  %call14 = invoke nonnull align 8 dereferenceable(8) %"class.std::basic_ostream"* @_ZStlsISt11char_traitsIcEERSt13basic_ostreamIcT_ES5_PKc(%"class.std::basic_ostream"* nonnull align 8 dereferenceable(8) @_ZSt4cerr, i8* getelementptr inbounds ([8 x i8], [8 x i8]* @.str.2, i64 0, i64 0))
          to label %invoke.cont13 unwind label %lpad

invoke.cont13:                                    ; preds = %if.then12
  %7 = load i8*, i8** getelementptr inbounds ([4 x i8*], [4 x i8*]* @_ZL18PROGRAM_STATUS_MSG, i64 0, i64 3), align 8
  %call16 = invoke nonnull align 8 dereferenceable(8) %"class.std::basic_ostream"* @_ZStlsISt11char_traitsIcEERSt13basic_ostreamIcT_ES5_PKc(%"class.std::basic_ostream"* nonnull align 8 dereferenceable(8) %call14, i8* %7)
          to label %invoke.cont15 unwind label %lpad

invoke.cont15:                                    ; preds = %invoke.cont13
  %call18 = invoke nonnull align 8 dereferenceable(8) %"class.std::basic_ostream"* @_ZStlsISt11char_traitsIcEERSt13basic_ostreamIcT_ES5_PKc(%"class.std::basic_ostream"* nonnull align 8 dereferenceable(8) %call16, i8* getelementptr inbounds ([2 x i8], [2 x i8]* @.str.3, i64 0, i64 0))
          to label %invoke.cont17 unwind label %lpad

invoke.cont17:                                    ; preds = %invoke.cont15
  store i32 1, i32* %retval, align 4
  store i32 1, i32* %cleanup.dest.slot, align 4
  br label %cleanup

if.end19:                                         ; preds = %invoke.cont9
  %8 = bitcast %"class.rlbox::tainted.24"* %agg.tmp to i8*
  %9 = bitcast %"class.rlbox::tainted.24"* %tainted_input_stream to i8*
  call void @llvm.memcpy.p0i8.p0i8.i64(i8* align 8 %8, i8* align 8 %9, i64 8, i1 false)
  %10 = load i8*, i8** %input_stream, align 8
  %coerce.dive20 = getelementptr inbounds %"class.rlbox::tainted.24", %"class.rlbox::tainted.24"* %agg.tmp, i32 0, i32 0
  %11 = load i8*, i8** %coerce.dive20, align 8
  %call22 = invoke i8* @_ZN5rlbox6memcpyINS_20rlbox_wasm2c_sandboxEcPcjNS_7taintedEEET3_IPT0_T_ERNS_13rlbox_sandboxIS7_EES8_T1_T2_(%"class.rlbox::rlbox_sandbox"* nonnull align 8 dereferenceable(3136) %sandbox, i8* %11, i8* %10, i32 100)
          to label %invoke.cont21 unwind label %lpad

invoke.cont21:                                    ; preds = %if.end19
  %coerce.dive23 = getelementptr inbounds %"class.rlbox::tainted.24", %"class.rlbox::tainted.24"* %coerce, i32 0, i32 0
  store i8* %call22, i8** %coerce.dive23, align 8
  store i32 100, i32* %detonation_codes, align 4
  %arraydecay = getelementptr inbounds [100 x i8], [100 x i8]* %address, i64 0, i64 0
  %12 = ptrtoint i32* %detonation_codes to i64
  %call24 = call i32 (i8*, i8*, ...) @sprintf(i8* %arraydecay, i8* getelementptr inbounds ([4 x i8], [4 x i8]* @.str.4, i64 0, i64 0), i64 %12) #3
  %call26 = invoke i8* @_ZN5rlbox13rlbox_sandboxINS_20rlbox_wasm2c_sandboxEE17malloc_in_sandboxIcEENS_7taintedIPT_S1_EEj(%"class.rlbox::rlbox_sandbox"* nonnull dereferenceable(3136) %sandbox, i32 100)
          to label %invoke.cont25 unwind label %lpad

invoke.cont25:                                    ; preds = %invoke.cont21
  %coerce.dive27 = getelementptr inbounds %"class.rlbox::tainted.24", %"class.rlbox::tainted.24"* %tainted_address, i32 0, i32 0
  store i8* %call26, i8** %coerce.dive27, align 8
  %13 = load i8*, i8** %input_stream, align 8
  %tobool28 = icmp ne i8* %13, null
  br i1 %tobool28, label %if.end36, label %if.then29

if.then29:                                        ; preds = %invoke.cont25
  %call31 = invoke nonnull align 8 dereferenceable(8) %"class.std::basic_ostream"* @_ZStlsISt11char_traitsIcEERSt13basic_ostreamIcT_ES5_PKc(%"class.std::basic_ostream"* nonnull align 8 dereferenceable(8) @_ZSt4cerr, i8* getelementptr inbounds ([8 x i8], [8 x i8]* @.str.2, i64 0, i64 0))
          to label %invoke.cont30 unwind label %lpad

invoke.cont30:                                    ; preds = %if.then29
  %14 = load i8*, i8** getelementptr inbounds ([4 x i8*], [4 x i8*]* @_ZL18PROGRAM_STATUS_MSG, i64 0, i64 3), align 8
  %call33 = invoke nonnull align 8 dereferenceable(8) %"class.std::basic_ostream"* @_ZStlsISt11char_traitsIcEERSt13basic_ostreamIcT_ES5_PKc(%"class.std::basic_ostream"* nonnull align 8 dereferenceable(8) %call31, i8* %14)
          to label %invoke.cont32 unwind label %lpad

invoke.cont32:                                    ; preds = %invoke.cont30
  %call35 = invoke nonnull align 8 dereferenceable(8) %"class.std::basic_ostream"* @_ZStlsISt11char_traitsIcEERSt13basic_ostreamIcT_ES5_PKc(%"class.std::basic_ostream"* nonnull align 8 dereferenceable(8) %call33, i8* getelementptr inbounds ([2 x i8], [2 x i8]* @.str.3, i64 0, i64 0))
          to label %invoke.cont34 unwind label %lpad

invoke.cont34:                                    ; preds = %invoke.cont32
  store i32 1, i32* %retval, align 4
  store i32 1, i32* %cleanup.dest.slot, align 4
  br label %cleanup

if.end36:                                         ; preds = %invoke.cont25
  %15 = bitcast %"class.rlbox::tainted.24"* %agg.tmp37 to i8*
  %16 = bitcast %"class.rlbox::tainted.24"* %tainted_address to i8*
  call void @llvm.memcpy.p0i8.p0i8.i64(i8* align 8 %15, i8* align 8 %16, i64 8, i1 false)
  %arraydecay38 = getelementptr inbounds [100 x i8], [100 x i8]* %address, i64 0, i64 0
  %coerce.dive39 = getelementptr inbounds %"class.rlbox::tainted.24", %"class.rlbox::tainted.24"* %agg.tmp37, i32 0, i32 0
  %17 = load i8*, i8** %coerce.dive39, align 8
  %call41 = invoke i8* @_ZN5rlbox6memcpyINS_20rlbox_wasm2c_sandboxEcPcjNS_7taintedEEET3_IPT0_T_ERNS_13rlbox_sandboxIS7_EES8_T1_T2_(%"class.rlbox::rlbox_sandbox"* nonnull align 8 dereferenceable(3136) %sandbox, i8* %17, i8* %arraydecay38, i32 100)
          to label %invoke.cont40 unwind label %lpad

invoke.cont40:                                    ; preds = %if.end36
  %coerce.dive43 = getelementptr inbounds %"class.rlbox::tainted.24", %"class.rlbox::tainted.24"* %coerce42, i32 0, i32 0
  store i8* %call41, i8** %coerce.dive43, align 8
  %call45 = invoke %struct.ImageHeader* @_ZN5rlbox13rlbox_sandboxINS_20rlbox_wasm2c_sandboxEE29INTERNAL_invoke_with_func_ptrIFP11ImageHeaderPcS6_EJRNS_7taintedIS6_S1_EESA_EEEDaPKcPvDpOT0_(%"class.rlbox::rlbox_sandbox"* nonnull dereferenceable(3136) %sandbox, i8* getelementptr inbounds ([19 x i8], [19 x i8]* @.str.5, i64 0, i64 0), i8* bitcast (i32 (%struct.wasm2c_sandbox_t*, i32, i32)* @w2c_parse_image_header to i8*), %"class.rlbox::tainted.24"* nonnull align 8 dereferenceable(8) %tainted_input_stream, %"class.rlbox::tainted.24"* nonnull align 8 dereferenceable(8) %tainted_address)
          to label %invoke.cont44 unwind label %lpad

invoke.cont44:                                    ; preds = %invoke.cont40
  %coerce.dive46 = getelementptr inbounds %"class.rlbox::tainted.26", %"class.rlbox::tainted.26"* %header, i32 0, i32 0
  store %struct.ImageHeader* %call45, %struct.ImageHeader** %coerce.dive46, align 8
  %18 = bitcast %"class.rlbox::tainted.26"* %header to %"class.rlbox::tainted_base_impl.27"*
  %call48 = invoke %"class.rlbox::tainted_volatile"* @_ZN5rlbox17tainted_base_implINS_7taintedEP11ImageHeaderNS_20rlbox_wasm2c_sandboxEEptEv(%"class.rlbox::tainted_base_impl.27"* nonnull dereferenceable(1) %18)
          to label %invoke.cont47 unwind label %lpad

invoke.cont47:                                    ; preds = %invoke.cont44
  %status_code = getelementptr inbounds %"class.rlbox::tainted_volatile", %"class.rlbox::tainted_volatile"* %call48, i32 0, i32 0
  invoke void @_ZN5rlbox7taintedIjNS_20rlbox_wasm2c_sandboxEEC2ERKNS_16tainted_volatileIjS1_EE(%"class.rlbox::tainted"* nonnull dereferenceable(4) %tainted_status_code, %"class.rlbox::tainted_volatile.28"* nonnull align 4 dereferenceable(4) %status_code)
          to label %invoke.cont49 unwind label %lpad

invoke.cont49:                                    ; preds = %invoke.cont47
  %19 = bitcast %"class.rlbox::tainted"* %tainted_status_code to %"class.rlbox::tainted_base_impl"*
  store i32 0, i32* %ref.tmp50, align 4
  %call52 = invoke i8 @_ZNK5rlbox17tainted_base_implINS_7taintedEjNS_20rlbox_wasm2c_sandboxEEneIiEEDaRKT_(%"class.rlbox::tainted_base_impl"* nonnull dereferenceable(1) %19, i32* nonnull align 4 dereferenceable(4) %ref.tmp50)
          to label %invoke.cont51 unwind label %lpad

invoke.cont51:                                    ; preds = %invoke.cont49
  %coerce.dive53 = getelementptr inbounds %"class.rlbox::tainted.30", %"class.rlbox::tainted.30"* %ref.tmp, i32 0, i32 0
  store i8 %call52, i8* %coerce.dive53, align 1
  %20 = bitcast %"class.rlbox::tainted.30"* %ref.tmp to %"class.rlbox::tainted_base_impl.31"*
  %call55 = invoke zeroext i1 @_ZN5rlbox17tainted_base_implINS_7taintedEbNS_20rlbox_wasm2c_sandboxEE23unverified_safe_becauseILm30EEEDaRAT__Kc(%"class.rlbox::tainted_base_impl.31"* nonnull dereferenceable(1) %20, [30 x i8]* nonnull align 1 dereferenceable(30) @.str.6)
          to label %invoke.cont54 unwind label %lpad

invoke.cont54:                                    ; preds = %invoke.cont51
  br i1 %call55, label %if.then56, label %if.end66

if.then56:                                        ; preds = %invoke.cont54
  %21 = bitcast %"class.rlbox::tainted"* %tainted_status_code to %"class.rlbox::tainted_base_impl"*
  %call59 = invoke i32 @"_ZNK5rlbox17tainted_base_implINS_7taintedEjNS_20rlbox_wasm2c_sandboxEE15copy_and_verifyIZ4mainE3$_1EEDaT_"(%"class.rlbox::tainted_base_impl"* nonnull dereferenceable(1) %21)
          to label %invoke.cont58 unwind label %lpad

invoke.cont58:                                    ; preds = %if.then56
  store i32 %call59, i32* %verified_status_code, align 4
  %call61 = invoke nonnull align 8 dereferenceable(8) %"class.std::basic_ostream"* @_ZStlsISt11char_traitsIcEERSt13basic_ostreamIcT_ES5_PKc(%"class.std::basic_ostream"* nonnull align 8 dereferenceable(8) @_ZSt4cerr, i8* getelementptr inbounds ([8 x i8], [8 x i8]* @.str.2, i64 0, i64 0))
          to label %invoke.cont60 unwind label %lpad

invoke.cont60:                                    ; preds = %invoke.cont58
  %22 = load i32, i32* %verified_status_code, align 4
  %idxprom = zext i32 %22 to i64
  %arrayidx = getelementptr inbounds [4 x i8*], [4 x i8*]* @_ZL18PROGRAM_STATUS_MSG, i64 0, i64 %idxprom
  %23 = load i8*, i8** %arrayidx, align 8
  %call63 = invoke nonnull align 8 dereferenceable(8) %"class.std::basic_ostream"* @_ZStlsISt11char_traitsIcEERSt13basic_ostreamIcT_ES5_PKc(%"class.std::basic_ostream"* nonnull align 8 dereferenceable(8) %call61, i8* %23)
          to label %invoke.cont62 unwind label %lpad

invoke.cont62:                                    ; preds = %invoke.cont60
  %call65 = invoke nonnull align 8 dereferenceable(8) %"class.std::basic_ostream"* @_ZStlsISt11char_traitsIcEERSt13basic_ostreamIcT_ES5_PKc(%"class.std::basic_ostream"* nonnull align 8 dereferenceable(8) %call63, i8* getelementptr inbounds ([2 x i8], [2 x i8]* @.str.3, i64 0, i64 0))
          to label %invoke.cont64 unwind label %lpad

invoke.cont64:                                    ; preds = %invoke.cont62
  store i32 1, i32* %retval, align 4
  store i32 1, i32* %cleanup.dest.slot, align 4
  br label %cleanup

if.end66:                                         ; preds = %invoke.cont54
  %24 = bitcast %"class.rlbox::tainted.26"* %header to %"class.rlbox::tainted_base_impl.27"*
  %call68 = invoke %"class.rlbox::tainted_volatile"* @_ZN5rlbox17tainted_base_implINS_7taintedEP11ImageHeaderNS_20rlbox_wasm2c_sandboxEEptEv(%"class.rlbox::tainted_base_impl.27"* nonnull dereferenceable(1) %24)
          to label %invoke.cont67 unwind label %lpad

invoke.cont67:                                    ; preds = %if.end66
  %height = getelementptr inbounds %"class.rlbox::tainted_volatile", %"class.rlbox::tainted_volatile"* %call68, i32 0, i32 2
  invoke void @_ZN5rlbox7taintedIjNS_20rlbox_wasm2c_sandboxEEC2ERKNS_16tainted_volatileIjS1_EE(%"class.rlbox::tainted"* nonnull dereferenceable(4) %tainted_height, %"class.rlbox::tainted_volatile.28"* nonnull align 4 dereferenceable(4) %height)
          to label %invoke.cont69 unwind label %lpad

invoke.cont69:                                    ; preds = %invoke.cont67
  %25 = bitcast %"class.rlbox::tainted.26"* %header to %"class.rlbox::tainted_base_impl.27"*
  %call71 = invoke %"class.rlbox::tainted_volatile"* @_ZN5rlbox17tainted_base_implINS_7taintedEP11ImageHeaderNS_20rlbox_wasm2c_sandboxEEptEv(%"class.rlbox::tainted_base_impl.27"* nonnull dereferenceable(1) %25)
          to label %invoke.cont70 unwind label %lpad

invoke.cont70:                                    ; preds = %invoke.cont69
  %width = getelementptr inbounds %"class.rlbox::tainted_volatile", %"class.rlbox::tainted_volatile"* %call71, i32 0, i32 1
  invoke void @_ZN5rlbox7taintedIjNS_20rlbox_wasm2c_sandboxEEC2ERKNS_16tainted_volatileIjS1_EE(%"class.rlbox::tainted"* nonnull dereferenceable(4) %tainted_width, %"class.rlbox::tainted_volatile.28"* nonnull align 4 dereferenceable(4) %width)
          to label %invoke.cont72 unwind label %lpad

invoke.cont72:                                    ; preds = %invoke.cont70
  %26 = bitcast %"class.rlbox::tainted"* %tainted_height to %"class.rlbox::tainted_base_impl"*
  %call75 = invoke i32 @_ZNK5rlbox17tainted_base_implINS_7taintedEjNS_20rlbox_wasm2c_sandboxEEmlINS1_IjS2_EEEENS1_IDTmlclL_ZSt7declvalIjEDTcl9__declvalIT_ELi0EEEvEEclsr3stdE7declvalINS_6detail27detail_rlbox_remove_wrapper9unwrapperIS7_E4typeEEEES2_EERKS7_(%"class.rlbox::tainted_base_impl"* nonnull dereferenceable(1) %26, %"class.rlbox::tainted"* nonnull align 4 dereferenceable(4) %tainted_width)
          to label %invoke.cont74 unwind label %lpad

invoke.cont74:                                    ; preds = %invoke.cont72
  %coerce.dive76 = getelementptr inbounds %"class.rlbox::tainted", %"class.rlbox::tainted"* %ref.tmp73, i32 0, i32 0
  store i32 %call75, i32* %coerce.dive76, align 4
  %27 = bitcast %"class.rlbox::tainted"* %ref.tmp73 to %"class.rlbox::tainted_base_impl"*
  %call78 = invoke i32 @_ZN5rlbox17tainted_base_implINS_7taintedEjNS_20rlbox_wasm2c_sandboxEE23unverified_safe_becauseILm33EEEDaRAT__Kc(%"class.rlbox::tainted_base_impl"* nonnull dereferenceable(1) %27, [33 x i8]* nonnull align 1 dereferenceable(33) @.str.7)
          to label %invoke.cont77 unwind label %lpad

invoke.cont77:                                    ; preds = %invoke.cont74
  store i32 %call78, i32* %output_size, align 4
  %28 = load i32, i32* %output_size, align 4
  %call80 = invoke i8* @_ZN5rlbox13rlbox_sandboxINS_20rlbox_wasm2c_sandboxEE17malloc_in_sandboxIcEENS_7taintedIPT_S1_EEj(%"class.rlbox::rlbox_sandbox"* nonnull dereferenceable(3136) %sandbox, i32 %28)
          to label %invoke.cont79 unwind label %lpad

invoke.cont79:                                    ; preds = %invoke.cont77
  %coerce.dive81 = getelementptr inbounds %"class.rlbox::tainted.24", %"class.rlbox::tainted.24"* %tainted_output_stream, i32 0, i32 0
  store i8* %call80, i8** %coerce.dive81, align 8
  %29 = bitcast %"class.rlbox::tainted.24"* %tainted_output_stream to %"class.rlbox::tainted_base_impl.25"*
  %call83 = invoke zeroext i1 @_ZN5rlbox17tainted_base_implINS_7taintedEPcNS_20rlbox_wasm2c_sandboxEEntEv(%"class.rlbox::tainted_base_impl.25"* nonnull dereferenceable(1) %29)
          to label %invoke.cont82 unwind label %lpad

invoke.cont82:                                    ; preds = %invoke.cont79
  br i1 %call83, label %if.then84, label %if.end91

if.then84:                                        ; preds = %invoke.cont82
  %call86 = invoke nonnull align 8 dereferenceable(8) %"class.std::basic_ostream"* @_ZStlsISt11char_traitsIcEERSt13basic_ostreamIcT_ES5_PKc(%"class.std::basic_ostream"* nonnull align 8 dereferenceable(8) @_ZSt4cerr, i8* getelementptr inbounds ([8 x i8], [8 x i8]* @.str.2, i64 0, i64 0))
          to label %invoke.cont85 unwind label %lpad

invoke.cont85:                                    ; preds = %if.then84
  %30 = load i8*, i8** getelementptr inbounds ([4 x i8*], [4 x i8*]* @_ZL18PROGRAM_STATUS_MSG, i64 0, i64 3), align 8
  %call88 = invoke nonnull align 8 dereferenceable(8) %"class.std::basic_ostream"* @_ZStlsISt11char_traitsIcEERSt13basic_ostreamIcT_ES5_PKc(%"class.std::basic_ostream"* nonnull align 8 dereferenceable(8) %call86, i8* %30)
          to label %invoke.cont87 unwind label %lpad

invoke.cont87:                                    ; preds = %invoke.cont85
  %call90 = invoke nonnull align 8 dereferenceable(8) %"class.std::basic_ostream"* @_ZStlsISt11char_traitsIcEERSt13basic_ostreamIcT_ES5_PKc(%"class.std::basic_ostream"* nonnull align 8 dereferenceable(8) %call88, i8* getelementptr inbounds ([2 x i8], [2 x i8]* @.str.3, i64 0, i64 0))
          to label %invoke.cont89 unwind label %lpad

invoke.cont89:                                    ; preds = %invoke.cont87
  store i32 1, i32* %retval, align 4
  store i32 1, i32* %cleanup.dest.slot, align 4
  br label %cleanup

if.end91:                                         ; preds = %invoke.cont82
  %call93 = invoke nonnull align 8 dereferenceable(8) %"class.std::basic_ostream"* @_ZStlsISt11char_traitsIcEERSt13basic_ostreamIcT_ES5_PKc(%"class.std::basic_ostream"* nonnull align 8 dereferenceable(8) @_ZSt4cout, i8* getelementptr inbounds ([15 x i8], [15 x i8]* @.str.8, i64 0, i64 0))
          to label %invoke.cont92 unwind label %lpad

invoke.cont92:                                    ; preds = %if.end91
  %call95 = invoke nonnull align 8 dereferenceable(8) %"class.std::basic_ostream"* @_ZNSolsEPFRSoS_E(%"class.std::basic_ostream"* nonnull dereferenceable(8) %call93, %"class.std::basic_ostream"* (%"class.std::basic_ostream"*)* @_ZSt4endlIcSt11char_traitsIcEERSt13basic_ostreamIT_T0_ES6_)
          to label %invoke.cont94 unwind label %lpad

invoke.cont94:                                    ; preds = %invoke.cont92
  store i32 0, i32* %i, align 4
  br label %for.cond

for.cond:                                         ; preds = %for.inc120, %invoke.cont94
  %31 = load i32, i32* %i, align 4
  %32 = bitcast %"class.rlbox::tainted"* %tainted_height to %"class.rlbox::tainted_base_impl"*
  %call97 = invoke i32 @_ZN5rlbox17tainted_base_implINS_7taintedEjNS_20rlbox_wasm2c_sandboxEE23unverified_safe_becauseILm19EEEDaRAT__Kc(%"class.rlbox::tainted_base_impl"* nonnull dereferenceable(1) %32, [19 x i8]* nonnull align 1 dereferenceable(19) @.str.9)
          to label %invoke.cont96 unwind label %lpad

invoke.cont96:                                    ; preds = %for.cond
  %cmp = icmp ult i32 %31, %call97
  br i1 %cmp, label %for.body, label %for.end122

for.body:                                         ; preds = %invoke.cont96
  store i32 0, i32* %j, align 4
  br label %for.cond98

for.cond98:                                       ; preds = %for.inc, %for.body
  %33 = load i32, i32* %j, align 4
  %34 = bitcast %"class.rlbox::tainted"* %tainted_width to %"class.rlbox::tainted_base_impl"*
  %call100 = invoke i32 @_ZN5rlbox17tainted_base_implINS_7taintedEjNS_20rlbox_wasm2c_sandboxEE23unverified_safe_becauseILm19EEEDaRAT__Kc(%"class.rlbox::tainted_base_impl"* nonnull dereferenceable(1) %34, [19 x i8]* nonnull align 1 dereferenceable(19) @.str.9)
          to label %invoke.cont99 unwind label %lpad

invoke.cont99:                                    ; preds = %for.cond98
  %cmp101 = icmp ult i32 %33, %call100
  br i1 %cmp101, label %for.body102, label %for.end

for.body102:                                      ; preds = %invoke.cont99
  %35 = bitcast %"class.rlbox::tainted"* %tainted_width to %"class.rlbox::tainted_base_impl"*
  %call105 = invoke i32 @_ZN5rlboxmlINS_7taintedEjNS_20rlbox_wasm2c_sandboxEiLPv0EEEDaRKT2_RKNS_17tainted_base_implIT_T0_T1_EE(i32* nonnull align 4 dereferenceable(4) %i, %"class.rlbox::tainted_base_impl"* nonnull align 1 dereferenceable(1) %35)
          to label %invoke.cont104 unwind label %lpad

invoke.cont104:                                   ; preds = %for.body102
  %coerce.dive106 = getelementptr inbounds %"class.rlbox::tainted", %"class.rlbox::tainted"* %ref.tmp103, i32 0, i32 0
  store i32 %call105, i32* %coerce.dive106, align 4
  %36 = bitcast %"class.rlbox::tainted"* %ref.tmp103 to %"class.rlbox::tainted_base_impl"*
  %call108 = invoke i32 @_ZNK5rlbox17tainted_base_implINS_7taintedEjNS_20rlbox_wasm2c_sandboxEEplIiEENS1_IDTplclL_ZSt7declvalIjEDTcl9__declvalIT_ELi0EEEvEEclsr3stdE7declvalINS_6detail27detail_rlbox_remove_wrapper9unwrapperIS6_E4typeEEEES2_EERKS6_(%"class.rlbox::tainted_base_impl"* nonnull dereferenceable(1) %36, i32* nonnull align 4 dereferenceable(4) %j)
          to label %invoke.cont107 unwind label %lpad

invoke.cont107:                                   ; preds = %invoke.cont104
  %coerce.dive109 = getelementptr inbounds %"class.rlbox::tainted", %"class.rlbox::tainted"* %index, i32 0, i32 0
  store i32 %call108, i32* %coerce.dive109, align 4
  %37 = bitcast %"class.rlbox::tainted.24"* %tainted_output_stream to %"class.rlbox::tainted_base_impl.25"*
  %call111 = invoke nonnull align 1 dereferenceable(1) %"class.rlbox::tainted_volatile.34"* @_ZN5rlbox17tainted_base_implINS_7taintedEPcNS_20rlbox_wasm2c_sandboxEEixIRNS1_IjS3_EEEERNS_16tainted_volatileIcS3_EEOT_(%"class.rlbox::tainted_base_impl.25"* nonnull dereferenceable(1) %37, %"class.rlbox::tainted"* nonnull align 4 dereferenceable(4) %index)
          to label %invoke.cont110 unwind label %lpad

invoke.cont110:                                   ; preds = %invoke.cont107
  %38 = bitcast %"class.rlbox::tainted_volatile.34"* %call111 to %"class.rlbox::tainted_base_impl.35"*
  %call113 = invoke signext i8 @_ZN5rlbox17tainted_base_implINS_16tainted_volatileEcNS_20rlbox_wasm2c_sandboxEE23unverified_safe_becauseILm28EEEDaRAT__Kc(%"class.rlbox::tainted_base_impl.35"* nonnull dereferenceable(1) %38, [28 x i8]* nonnull align 1 dereferenceable(28) @.str.10)
          to label %invoke.cont112 unwind label %lpad

invoke.cont112:                                   ; preds = %invoke.cont110
  %conv = sext i8 %call113 to i32
  %call115 = invoke nonnull align 8 dereferenceable(8) %"class.std::basic_ostream"* @_ZNSolsEj(%"class.std::basic_ostream"* nonnull dereferenceable(8) @_ZSt4cout, i32 %conv)
          to label %invoke.cont114 unwind label %lpad

invoke.cont114:                                   ; preds = %invoke.cont112
  %call117 = invoke nonnull align 8 dereferenceable(8) %"class.std::basic_ostream"* @_ZStlsISt11char_traitsIcEERSt13basic_ostreamIcT_ES5_PKc(%"class.std::basic_ostream"* nonnull align 8 dereferenceable(8) %call115, i8* getelementptr inbounds ([2 x i8], [2 x i8]* @.str.11, i64 0, i64 0))
          to label %invoke.cont116 unwind label %lpad

invoke.cont116:                                   ; preds = %invoke.cont114
  br label %for.inc

for.inc:                                          ; preds = %invoke.cont116
  %39 = load i32, i32* %j, align 4
  %inc = add nsw i32 %39, 1
  store i32 %inc, i32* %j, align 4
  br label %for.cond98, !llvm.loop !2

for.end:                                          ; preds = %invoke.cont99
  %call119 = invoke nonnull align 8 dereferenceable(8) %"class.std::basic_ostream"* @_ZNSolsEPFRSoS_E(%"class.std::basic_ostream"* nonnull dereferenceable(8) @_ZSt4cout, %"class.std::basic_ostream"* (%"class.std::basic_ostream"*)* @_ZSt4endlIcSt11char_traitsIcEERSt13basic_ostreamIT_T0_ES6_)
          to label %invoke.cont118 unwind label %lpad

invoke.cont118:                                   ; preds = %for.end
  br label %for.inc120

for.inc120:                                       ; preds = %invoke.cont118
  %40 = load i32, i32* %i, align 4
  %inc121 = add nsw i32 %40, 1
  store i32 %inc121, i32* %i, align 4
  br label %for.cond, !llvm.loop !4

for.end122:                                       ; preds = %invoke.cont96
  %call124 = invoke nonnull align 8 dereferenceable(8) %"class.std::basic_ostream"* @_ZStlsISt11char_traitsIcEERSt13basic_ostreamIcT_ES5_PKc(%"class.std::basic_ostream"* nonnull align 8 dereferenceable(8) @_ZSt4cout, i8* getelementptr inbounds ([2 x i8], [2 x i8]* @.str.3, i64 0, i64 0))
          to label %invoke.cont123 unwind label %lpad

invoke.cont123:                                   ; preds = %for.end122
  %41 = bitcast %"class.rlbox::tainted.26"* %agg.tmp125 to i8*
  %42 = bitcast %"class.rlbox::tainted.26"* %header to i8*
  call void @llvm.memcpy.p0i8.p0i8.i64(i8* align 8 %41, i8* align 8 %42, i64 8, i1 false)
  %coerce.dive126 = getelementptr inbounds %"class.rlbox::tainted.26", %"class.rlbox::tainted.26"* %agg.tmp125, i32 0, i32 0
  %43 = load %struct.ImageHeader*, %struct.ImageHeader** %coerce.dive126, align 8
  invoke void @_ZN5rlbox13rlbox_sandboxINS_20rlbox_wasm2c_sandboxEE15free_in_sandboxI11ImageHeaderEEvNS_7taintedIPT_S1_EE(%"class.rlbox::rlbox_sandbox"* nonnull dereferenceable(3136) %sandbox, %struct.ImageHeader* %43)
          to label %invoke.cont127 unwind label %lpad

invoke.cont127:                                   ; preds = %invoke.cont123
  %44 = load i8*, i8** %input_stream, align 8
  %isnull = icmp eq i8* %44, null
  br i1 %isnull, label %delete.end, label %delete.notnull

delete.notnull:                                   ; preds = %invoke.cont127
  call void @_ZdaPv(i8* %44) #23
  br label %delete.end

delete.end:                                       ; preds = %delete.notnull, %invoke.cont127
  %45 = bitcast %"class.rlbox::tainted.24"* %agg.tmp128 to i8*
  %46 = bitcast %"class.rlbox::tainted.24"* %tainted_input_stream to i8*
  call void @llvm.memcpy.p0i8.p0i8.i64(i8* align 8 %45, i8* align 8 %46, i64 8, i1 false)
  %coerce.dive129 = getelementptr inbounds %"class.rlbox::tainted.24", %"class.rlbox::tainted.24"* %agg.tmp128, i32 0, i32 0
  %47 = load i8*, i8** %coerce.dive129, align 8
  invoke void @_ZN5rlbox13rlbox_sandboxINS_20rlbox_wasm2c_sandboxEE15free_in_sandboxIcEEvNS_7taintedIPT_S1_EE(%"class.rlbox::rlbox_sandbox"* nonnull dereferenceable(3136) %sandbox, i8* %47)
          to label %invoke.cont130 unwind label %lpad

invoke.cont130:                                   ; preds = %delete.end
  %48 = bitcast %"class.rlbox::tainted.24"* %agg.tmp131 to i8*
  %49 = bitcast %"class.rlbox::tainted.24"* %tainted_output_stream to i8*
  call void @llvm.memcpy.p0i8.p0i8.i64(i8* align 8 %48, i8* align 8 %49, i64 8, i1 false)
  %coerce.dive132 = getelementptr inbounds %"class.rlbox::tainted.24", %"class.rlbox::tainted.24"* %agg.tmp131, i32 0, i32 0
  %50 = load i8*, i8** %coerce.dive132, align 8
  invoke void @_ZN5rlbox13rlbox_sandboxINS_20rlbox_wasm2c_sandboxEE15free_in_sandboxIcEEvNS_7taintedIPT_S1_EE(%"class.rlbox::rlbox_sandbox"* nonnull dereferenceable(3136) %sandbox, i8* %50)
          to label %invoke.cont133 unwind label %lpad

invoke.cont133:                                   ; preds = %invoke.cont130
  invoke void @_ZN5rlbox13rlbox_sandboxINS_20rlbox_wasm2c_sandboxEE15destroy_sandboxEv(%"class.rlbox::rlbox_sandbox"* nonnull dereferenceable(3136) %sandbox)
          to label %invoke.cont134 unwind label %lpad

invoke.cont134:                                   ; preds = %invoke.cont133
  store i32 0, i32* %retval, align 4
  store i32 1, i32* %cleanup.dest.slot, align 4
  br label %cleanup

cleanup:                                          ; preds = %invoke.cont134, %invoke.cont89, %invoke.cont64, %invoke.cont34, %invoke.cont17, %invoke.cont7
  call void @_ZN5rlbox13rlbox_sandboxINS_20rlbox_wasm2c_sandboxEED2Ev(%"class.rlbox::rlbox_sandbox"* nonnull dereferenceable(3136) %sandbox) #3
  %51 = load i32, i32* %retval, align 4
  ret i32 %51

eh.resume:                                        ; preds = %lpad
  %exn = load i8*, i8** %exn.slot, align 8
  %sel = load i32, i32* %ehselector.slot, align 4
  %lpad.val = insertvalue { i8*, i32 } undef, i8* %exn, 0
  %lpad.val135 = insertvalue { i8*, i32 } %lpad.val, i32 %sel, 1
  resume { i8*, i32 } %lpad.val135
}

; Function Attrs: noinline optnone uwtable
define linkonce_odr dso_local void @_ZN5rlbox13rlbox_sandboxINS_20rlbox_wasm2c_sandboxEEC2Ev(%"class.rlbox::rlbox_sandbox"* nonnull dereferenceable(3136) %this) unnamed_addr #7 comdat align 2 personality i8* bitcast (i32 (...)* @__gxx_personality_v0 to i8*) {
entry:
  %this.addr = alloca %"class.rlbox::rlbox_sandbox"*, align 8
  %exn.slot = alloca i8*, align 8
  %ehselector.slot = alloca i32, align 4
  store %"class.rlbox::rlbox_sandbox"* %this, %"class.rlbox::rlbox_sandbox"** %this.addr, align 8
  %this1 = load %"class.rlbox::rlbox_sandbox"*, %"class.rlbox::rlbox_sandbox"** %this.addr, align 8
  %0 = bitcast %"class.rlbox::rlbox_sandbox"* %this1 to %"class.rlbox::rlbox_wasm2c_sandbox"*
  call void @_ZN5rlbox20rlbox_wasm2c_sandboxC2Ev(%"class.rlbox::rlbox_wasm2c_sandbox"* nonnull dereferenceable(2832) %0) #3
  %func_ptr_cache_lock = getelementptr inbounds %"class.rlbox::rlbox_sandbox", %"class.rlbox::rlbox_sandbox"* %this1, i32 0, i32 1
  call void @_ZNSt18shared_timed_mutexC2Ev(%"class.std::shared_timed_mutex"* nonnull dereferenceable(56) %func_ptr_cache_lock) #3
  %func_ptr_map = getelementptr inbounds %"class.rlbox::rlbox_sandbox", %"class.rlbox::rlbox_sandbox"* %this1, i32 0, i32 2
  call void @_ZNSt3mapINSt7__cxx1112basic_stringIcSt11char_traitsIcESaIcEEEPvSt4lessIS5_ESaISt4pairIKS5_S6_EEEC2Ev(%"class.std::map.8"* nonnull dereferenceable(48) %func_ptr_map) #3
  %app_ptr_map = getelementptr inbounds %"class.rlbox::rlbox_sandbox", %"class.rlbox::rlbox_sandbox"* %this1, i32 0, i32 3
  invoke void @_ZN5rlbox15app_pointer_mapIjEC2Ev(%"class.rlbox::app_pointer_map"* nonnull dereferenceable(112) %app_ptr_map)
          to label %invoke.cont unwind label %lpad

invoke.cont:                                      ; preds = %entry
  %sandbox_created = getelementptr inbounds %"class.rlbox::rlbox_sandbox", %"class.rlbox::rlbox_sandbox"* %this1, i32 0, i32 4
  call void @_ZNSt6atomicIN5rlbox13rlbox_sandboxINS0_20rlbox_wasm2c_sandboxEE14Sandbox_StatusEEC2ES4_(%"struct.std::atomic"* nonnull dereferenceable(4) %sandbox_created, i32 0) #3
  %callback_lock = getelementptr inbounds %"class.rlbox::rlbox_sandbox", %"class.rlbox::rlbox_sandbox"* %this1, i32 0, i32 5
  call void @_ZNSt5mutexC2Ev(%"class.std::mutex"* nonnull dereferenceable(40) %callback_lock) #3
  %callback_keys = getelementptr inbounds %"class.rlbox::rlbox_sandbox", %"class.rlbox::rlbox_sandbox"* %this1, i32 0, i32 6
  call void @_ZNSt6vectorIPvSaIS0_EEC2Ev(%"class.std::vector"* nonnull dereferenceable(24) %callback_keys) #3
  %transition_state = getelementptr inbounds %"class.rlbox::rlbox_sandbox", %"class.rlbox::rlbox_sandbox"* %this1, i32 0, i32 7
  store i8* null, i8** %transition_state, align 8
  ret void

lpad:                                             ; preds = %entry
  %1 = landingpad { i8*, i32 }
          cleanup
  %2 = extractvalue { i8*, i32 } %1, 0
  store i8* %2, i8** %exn.slot, align 8
  %3 = extractvalue { i8*, i32 } %1, 1
  store i32 %3, i32* %ehselector.slot, align 4
  call void @_ZNSt3mapINSt7__cxx1112basic_stringIcSt11char_traitsIcESaIcEEEPvSt4lessIS5_ESaISt4pairIKS5_S6_EEED2Ev(%"class.std::map.8"* nonnull dereferenceable(48) %func_ptr_map) #3
  %4 = bitcast %"class.rlbox::rlbox_sandbox"* %this1 to %"class.rlbox::rlbox_wasm2c_sandbox"*
  call void @_ZN5rlbox20rlbox_wasm2c_sandboxD2Ev(%"class.rlbox::rlbox_wasm2c_sandbox"* nonnull dereferenceable(2832) %4) #3
  br label %eh.resume

eh.resume:                                        ; preds = %lpad
  %exn = load i8*, i8** %exn.slot, align 8
  %sel = load i32, i32* %ehselector.slot, align 4
  %lpad.val = insertvalue { i8*, i32 } undef, i8* %exn, 0
  %lpad.val2 = insertvalue { i8*, i32 } %lpad.val, i32 %sel, 1
  resume { i8*, i32 } %lpad.val2
}

; Function Attrs: noinline optnone uwtable mustprogress
define linkonce_odr dso_local zeroext i1 @_ZN5rlbox13rlbox_sandboxINS_20rlbox_wasm2c_sandboxEE14create_sandboxIJEEEbDpT_(%"class.rlbox::rlbox_sandbox"* nonnull dereferenceable(3136) %this) #4 comdat align 2 personality i8* bitcast (i32 (...)* @__gxx_personality_v0 to i8*) {
entry:
  %this.addr = alloca %"class.rlbox::rlbox_sandbox"*, align 8
  %expected = alloca i32, align 4
  %success = alloca i8, align 1
  %created = alloca i8, align 1
  %lock = alloca %"class.std::unique_lock", align 8
  %ref.tmp = alloca i8*, align 8
  %exn.slot = alloca i8*, align 8
  %ehselector.slot = alloca i32, align 4
  store %"class.rlbox::rlbox_sandbox"* %this, %"class.rlbox::rlbox_sandbox"** %this.addr, align 8
  %this1 = load %"class.rlbox::rlbox_sandbox"*, %"class.rlbox::rlbox_sandbox"** %this.addr, align 8
  store i32 0, i32* %expected, align 4
  %sandbox_created = getelementptr inbounds %"class.rlbox::rlbox_sandbox", %"class.rlbox::rlbox_sandbox"* %this1, i32 0, i32 4
  %call = call zeroext i1 @_ZNSt6atomicIN5rlbox13rlbox_sandboxINS0_20rlbox_wasm2c_sandboxEE14Sandbox_StatusEE23compare_exchange_strongERS4_S4_St12memory_order(%"struct.std::atomic"* nonnull dereferenceable(4) %sandbox_created, i32* nonnull align 4 dereferenceable(4) %expected, i32 1, i32 5) #3
  %frombool = zext i1 %call to i8
  store i8 %frombool, i8* %success, align 1
  %0 = load i8, i8* %success, align 1
  %tobool = trunc i8 %0 to i1
  call void @_ZN5rlbox6detail13dynamic_checkEbPKc(i1 zeroext %tobool, i8* getelementptr inbounds ([81 x i8], [81 x i8]* @.str.24, i64 0, i64 0))
  store i8 1, i8* %created, align 1
  %1 = bitcast %"class.rlbox::rlbox_sandbox"* %this1 to %"class.rlbox::rlbox_wasm2c_sandbox"*
  %call2 = call zeroext i1 @_ZN5rlbox20rlbox_wasm2c_sandbox19impl_create_sandboxEbmPKc(%"class.rlbox::rlbox_wasm2c_sandbox"* nonnull dereferenceable(2832) %1, i1 zeroext true, i64 0, i8* getelementptr inbounds ([1 x i8], [1 x i8]* @.str.25, i64 0, i64 0))
  %frombool3 = zext i1 %call2 to i8
  store i8 %frombool3, i8* %created, align 1
  %2 = load i8, i8* %created, align 1
  %tobool4 = trunc i8 %2 to i1
  br i1 %tobool4, label %if.then, label %if.end

if.then:                                          ; preds = %entry
  %sandbox_created5 = getelementptr inbounds %"class.rlbox::rlbox_sandbox", %"class.rlbox::rlbox_sandbox"* %this1, i32 0, i32 4
  call void @_ZNSt6atomicIN5rlbox13rlbox_sandboxINS0_20rlbox_wasm2c_sandboxEE14Sandbox_StatusEE5storeES4_St12memory_order(%"struct.std::atomic"* nonnull dereferenceable(4) %sandbox_created5, i32 2, i32 5) #3
  call void @_ZNSt11unique_lockISt18shared_timed_mutexEC2ERS0_(%"class.std::unique_lock"* nonnull dereferenceable(9) %lock, %"class.std::shared_timed_mutex"* nonnull align 8 dereferenceable(56) bitcast ({ %union.pthread_rwlock_t }* @_ZN5rlbox13rlbox_sandboxINS_20rlbox_wasm2c_sandboxEE17sandbox_list_lockE to %"class.std::shared_timed_mutex"*))
  %3 = bitcast %"class.rlbox::rlbox_sandbox"* %this1 to i8*
  store i8* %3, i8** %ref.tmp, align 8
  invoke void @_ZNSt6vectorIPvSaIS0_EE9push_backEOS0_(%"class.std::vector"* nonnull dereferenceable(24) @_ZN5rlbox13rlbox_sandboxINS_20rlbox_wasm2c_sandboxEE12sandbox_listE, i8** nonnull align 8 dereferenceable(8) %ref.tmp)
          to label %invoke.cont unwind label %lpad

invoke.cont:                                      ; preds = %if.then
  call void @_ZNSt11unique_lockISt18shared_timed_mutexED2Ev(%"class.std::unique_lock"* nonnull dereferenceable(9) %lock) #3
  br label %if.end

lpad:                                             ; preds = %if.then
  %4 = landingpad { i8*, i32 }
          cleanup
  %5 = extractvalue { i8*, i32 } %4, 0
  store i8* %5, i8** %exn.slot, align 8
  %6 = extractvalue { i8*, i32 } %4, 1
  store i32 %6, i32* %ehselector.slot, align 4
  call void @_ZNSt11unique_lockISt18shared_timed_mutexED2Ev(%"class.std::unique_lock"* nonnull dereferenceable(9) %lock) #3
  br label %eh.resume

if.end:                                           ; preds = %invoke.cont, %entry
  %7 = load i8, i8* %created, align 1
  %tobool6 = trunc i8 %7 to i1
  ret i1 %tobool6

eh.resume:                                        ; preds = %lpad
  %exn = load i8*, i8** %exn.slot, align 8
  %sel = load i32, i32* %ehselector.slot, align 4
  %lpad.val = insertvalue { i8*, i32 } undef, i8* %exn, 0
  %lpad.val7 = insertvalue { i8*, i32 } %lpad.val, i32 %sel, 1
  resume { i8*, i32 } %lpad.val7
}

declare dso_local i32 @__gxx_personality_v0(...)

; Function Attrs: nobuiltin allocsize(0)
declare dso_local nonnull i8* @_Znam(i64) #8

; Function Attrs: noinline optnone uwtable mustprogress
define linkonce_odr dso_local i8* @_ZN5rlbox13rlbox_sandboxINS_20rlbox_wasm2c_sandboxEE17malloc_in_sandboxIcEENS_7taintedIPT_S1_EEj(%"class.rlbox::rlbox_sandbox"* nonnull dereferenceable(3136) %this, i32 %count) #4 comdat align 2 {
entry:
  %retval = alloca %"class.rlbox::tainted.24", align 8
  %this.addr = alloca %"class.rlbox::rlbox_sandbox"*, align 8
  %count.addr = alloca i32, align 4
  %ref.tmp = alloca i8*, align 8
  %total_size = alloca i64, align 8
  %ptr_in_sandbox = alloca i32, align 4
  %ptr = alloca i8*, align 8
  %ref.tmp7 = alloca i8*, align 8
  %ptr_end = alloca i64, align 8
  %cast_ptr = alloca i8*, align 8
  store %"class.rlbox::rlbox_sandbox"* %this, %"class.rlbox::rlbox_sandbox"** %this.addr, align 8
  store i32 %count, i32* %count.addr, align 4
  %this1 = load %"class.rlbox::rlbox_sandbox"*, %"class.rlbox::rlbox_sandbox"** %this.addr, align 8
  %sandbox_created = getelementptr inbounds %"class.rlbox::rlbox_sandbox", %"class.rlbox::rlbox_sandbox"* %this1, i32 0, i32 4
  %call = call i32 @_ZNKSt6atomicIN5rlbox13rlbox_sandboxINS0_20rlbox_wasm2c_sandboxEE14Sandbox_StatusEE4loadESt12memory_order(%"struct.std::atomic"* nonnull dereferenceable(4) %sandbox_created, i32 5) #3
  %cmp = icmp ne i32 %call, 2
  br i1 %cmp, label %if.then, label %if.end

if.then:                                          ; preds = %entry
  store i8* null, i8** %ref.tmp, align 8
  %call2 = call i8* @_ZN5rlbox7taintedIPcNS_20rlbox_wasm2c_sandboxEE16internal_factoryIDnEES3_OT_(i8** nonnull align 8 dereferenceable(8) %ref.tmp)
  %coerce.dive = getelementptr inbounds %"class.rlbox::tainted.24", %"class.rlbox::tainted.24"* %retval, i32 0, i32 0
  store i8* %call2, i8** %coerce.dive, align 8
  br label %return

if.end:                                           ; preds = %entry
  %0 = load i32, i32* %count.addr, align 4
  %cmp3 = icmp ne i32 %0, 0
  call void @_ZN5rlbox6detail13dynamic_checkEbPKc(i1 zeroext %cmp3, i8* getelementptr inbounds ([33 x i8], [33 x i8]* @.str.36, i64 0, i64 0))
  %1 = load i32, i32* %count.addr, align 4
  %conv = zext i32 %1 to i64
  %mul = mul i64 1, %conv
  store i64 %mul, i64* %total_size, align 8
  %2 = bitcast %"class.rlbox::rlbox_sandbox"* %this1 to %"class.rlbox::rlbox_wasm2c_sandbox"*
  %3 = load i64, i64* %total_size, align 8
  %call4 = call i32 @_ZN5rlbox20rlbox_wasm2c_sandbox22impl_malloc_in_sandboxEm(%"class.rlbox::rlbox_wasm2c_sandbox"* nonnull dereferenceable(2832) %2, i64 %3)
  store i32 %call4, i32* %ptr_in_sandbox, align 4
  %4 = load i32, i32* %ptr_in_sandbox, align 4
  %call5 = call i8* @_ZNK5rlbox13rlbox_sandboxINS_20rlbox_wasm2c_sandboxEE23get_unsandboxed_pointerIPcEET_NS_6detail14convert_detail27convert_base_types_t_helperIS5_siiljvE4typeE(%"class.rlbox::rlbox_sandbox"* nonnull dereferenceable(3136) %this1, i32 %4)
  store i8* %call5, i8** %ptr, align 8
  %5 = load i8*, i8** %ptr, align 8
  %tobool = icmp ne i8* %5, null
  br i1 %tobool, label %if.end8, label %if.then6

if.then6:                                         ; preds = %if.end
  store i8* null, i8** %ref.tmp7, align 8
  call void @_ZN5rlbox7taintedIPcNS_20rlbox_wasm2c_sandboxEEC2ERKDn(%"class.rlbox::tainted.24"* nonnull dereferenceable(8) %retval, i8** nonnull align 8 dereferenceable(8) %ref.tmp7)
  br label %return

if.end8:                                          ; preds = %if.end
  %6 = load i8*, i8** %ptr, align 8
  %call9 = call zeroext i1 @_ZN5rlbox13rlbox_sandboxINS_20rlbox_wasm2c_sandboxEE28is_pointer_in_sandbox_memoryEPKv(%"class.rlbox::rlbox_sandbox"* nonnull dereferenceable(3136) %this1, i8* %6)
  call void @_ZN5rlbox6detail13dynamic_checkEbPKc(i1 zeroext %call9, i8* getelementptr inbounds ([51 x i8], [51 x i8]* @.str.37, i64 0, i64 0))
  %7 = load i8*, i8** %ptr, align 8
  %8 = load i32, i32* %count.addr, align 4
  %sub = sub i32 %8, 1
  %idx.ext = zext i32 %sub to i64
  %add.ptr = getelementptr inbounds i8, i8* %7, i64 %idx.ext
  %9 = ptrtoint i8* %add.ptr to i64
  store i64 %9, i64* %ptr_end, align 8
  %10 = load i8*, i8** %ptr, align 8
  %11 = load i64, i64* %ptr_end, align 8
  %12 = inttoptr i64 %11 to i8*
  %call10 = call zeroext i1 @_ZN5rlbox13rlbox_sandboxINS_20rlbox_wasm2c_sandboxEE18is_in_same_sandboxEPKvS4_(i8* %10, i8* %12)
  call void @_ZN5rlbox6detail13dynamic_checkEbPKc(i1 zeroext %call10, i8* getelementptr inbounds ([65 x i8], [65 x i8]* @.str.38, i64 0, i64 0))
  %13 = load i8*, i8** %ptr, align 8
  store i8* %13, i8** %cast_ptr, align 8
  %call11 = call i8* @_ZN5rlbox7taintedIPcNS_20rlbox_wasm2c_sandboxEE16internal_factoryIRS1_EES3_OT_(i8** nonnull align 8 dereferenceable(8) %cast_ptr)
  %coerce.dive12 = getelementptr inbounds %"class.rlbox::tainted.24", %"class.rlbox::tainted.24"* %retval, i32 0, i32 0
  store i8* %call11, i8** %coerce.dive12, align 8
  br label %return

return:                                           ; preds = %if.end8, %if.then6, %if.then
  %coerce.dive13 = getelementptr inbounds %"class.rlbox::tainted.24", %"class.rlbox::tainted.24"* %retval, i32 0, i32 0
  %14 = load i8*, i8** %coerce.dive13, align 8
  ret i8* %14
}

; Function Attrs: noinline optnone uwtable mustprogress
define linkonce_odr dso_local i8* @_ZN5rlbox6memcpyINS_20rlbox_wasm2c_sandboxEcPcjNS_7taintedEEET3_IPT0_T_ERNS_13rlbox_sandboxIS7_EES8_T1_T2_(%"class.rlbox::rlbox_sandbox"* nonnull align 8 dereferenceable(3136) %sandbox, i8* %dest.coerce, i8* %src, i32 %num) #4 comdat {
entry:
  %retval = alloca %"class.rlbox::tainted.24", align 8
  %dest = alloca %"class.rlbox::tainted.24", align 8
  %sandbox.addr = alloca %"class.rlbox::rlbox_sandbox"*, align 8
  %src.addr = alloca i8*, align 8
  %num.addr = alloca i32, align 4
  %num_val = alloca i32, align 4
  %dest_tainted = alloca %"class.rlbox::tainted.24", align 8
  %dest_start = alloca i8*, align 8
  %src_start = alloca i8*, align 8
  %coerce.dive = getelementptr inbounds %"class.rlbox::tainted.24", %"class.rlbox::tainted.24"* %dest, i32 0, i32 0
  store i8* %dest.coerce, i8** %coerce.dive, align 8
  store %"class.rlbox::rlbox_sandbox"* %sandbox, %"class.rlbox::rlbox_sandbox"** %sandbox.addr, align 8
  store i8* %src, i8** %src.addr, align 8
  store i32 %num, i32* %num.addr, align 4
  %call = call i32 @_ZN5rlbox6detail12unwrap_valueIRjEEDaOT_(i32* nonnull align 4 dereferenceable(4) %num.addr) #3
  store i32 %call, i32* %num_val, align 4
  %0 = load i32, i32* %num_val, align 4
  %conv = zext i32 %0 to i64
  %1 = load %"class.rlbox::rlbox_sandbox"*, %"class.rlbox::rlbox_sandbox"** %sandbox.addr, align 8
  %call1 = call i64 @_ZN5rlbox13rlbox_sandboxINS_20rlbox_wasm2c_sandboxEE16get_total_memoryEv(%"class.rlbox::rlbox_sandbox"* nonnull dereferenceable(3136) %1)
  %cmp = icmp ule i64 %conv, %call1
  call void @_ZN5rlbox6detail13dynamic_checkEbPKc(i1 zeroext %cmp, i8* getelementptr inbounds ([49 x i8], [49 x i8]* @.str.40, i64 0, i64 0))
  %2 = bitcast %"class.rlbox::tainted.24"* %dest_tainted to i8*
  %3 = bitcast %"class.rlbox::tainted.24"* %dest to i8*
  call void @llvm.memcpy.p0i8.p0i8.i64(i8* align 8 %2, i8* align 8 %3, i64 8, i1 false)
  %4 = bitcast %"class.rlbox::tainted.24"* %dest_tainted to %"class.rlbox::tainted_base_impl.25"*
  %call2 = call i8* @_ZN5rlbox17tainted_base_implINS_7taintedEPcNS_20rlbox_wasm2c_sandboxEE24INTERNAL_unverified_safeEv(%"class.rlbox::tainted_base_impl.25"* nonnull dereferenceable(1) %4)
  store i8* %call2, i8** %dest_start, align 8
  %5 = load i8*, i8** %dest_start, align 8
  %6 = load i32, i32* %num_val, align 4
  %conv3 = zext i32 %6 to i64
  call void @_ZN5rlbox6detail41check_range_doesnt_cross_app_sbx_boundaryINS_20rlbox_wasm2c_sandboxEEEvPKvm(i8* %5, i64 %conv3)
  %call4 = call i8* @_ZN5rlbox6detail12unwrap_valueIRPcEEDaOT_(i8** nonnull align 8 dereferenceable(8) %src.addr) #3
  store i8* %call4, i8** %src_start, align 8
  %7 = load i8*, i8** %src_start, align 8
  %8 = load i32, i32* %num_val, align 4
  %conv5 = zext i32 %8 to i64
  call void @_ZN5rlbox6detail41check_range_doesnt_cross_app_sbx_boundaryINS_20rlbox_wasm2c_sandboxEEEvPKvm(i8* %7, i64 %conv5)
  %9 = load i8*, i8** %dest_start, align 8
  %10 = load i8*, i8** %src_start, align 8
  %11 = load i32, i32* %num_val, align 4
  %conv6 = zext i32 %11 to i64
  call void @llvm.memcpy.p0i8.p0i8.i64(i8* align 1 %9, i8* align 1 %10, i64 %conv6, i1 false)
  %12 = bitcast %"class.rlbox::tainted.24"* %retval to i8*
  %13 = bitcast %"class.rlbox::tainted.24"* %dest to i8*
  call void @llvm.memcpy.p0i8.p0i8.i64(i8* align 8 %12, i8* align 8 %13, i64 8, i1 false)
  %coerce.dive7 = getelementptr inbounds %"class.rlbox::tainted.24", %"class.rlbox::tainted.24"* %retval, i32 0, i32 0
  %14 = load i8*, i8** %coerce.dive7, align 8
  ret i8* %14
}

; Function Attrs: argmemonly nofree nosync nounwind willreturn
declare void @llvm.memcpy.p0i8.p0i8.i64(i8* noalias nocapture writeonly, i8* noalias nocapture readonly, i64, i1 immarg) #9

; Function Attrs: nounwind
declare dso_local i32 @sprintf(i8*, i8*, ...) #2

; Function Attrs: noinline optnone uwtable mustprogress
define linkonce_odr dso_local %struct.ImageHeader* @_ZN5rlbox13rlbox_sandboxINS_20rlbox_wasm2c_sandboxEE29INTERNAL_invoke_with_func_ptrIFP11ImageHeaderPcS6_EJRNS_7taintedIS6_S1_EESA_EEEDaPKcPvDpOT0_(%"class.rlbox::rlbox_sandbox"* nonnull dereferenceable(3136) %this, i8* %func_name, i8* %func_ptr, %"class.rlbox::tainted.24"* nonnull align 8 dereferenceable(8) %params, %"class.rlbox::tainted.24"* nonnull align 8 dereferenceable(8) %params1) #4 comdat align 2 {
entry:
  %retval = alloca %"class.rlbox::tainted.26", align 8
  %this.addr = alloca %"class.rlbox::rlbox_sandbox"*, align 8
  %func_name.addr = alloca i8*, align 8
  %func_ptr.addr = alloca i8*, align 8
  %params.addr = alloca %"class.rlbox::tainted.24"*, align 8
  %params.addr2 = alloca %"class.rlbox::tainted.24"*, align 8
  %raw_result = alloca i32, align 4
  %ref.tmp = alloca i32, align 4
  %ref.tmp4 = alloca i32, align 4
  %wrapped_result = alloca %"class.rlbox::tainted.26", align 8
  store %"class.rlbox::rlbox_sandbox"* %this, %"class.rlbox::rlbox_sandbox"** %this.addr, align 8
  store i8* %func_name, i8** %func_name.addr, align 8
  store i8* %func_ptr, i8** %func_ptr.addr, align 8
  store %"class.rlbox::tainted.24"* %params, %"class.rlbox::tainted.24"** %params.addr, align 8
  store %"class.rlbox::tainted.24"* %params1, %"class.rlbox::tainted.24"** %params.addr2, align 8
  %this3 = load %"class.rlbox::rlbox_sandbox"*, %"class.rlbox::rlbox_sandbox"** %this.addr, align 8
  call void @_ZN5rlbox13rlbox_sandboxINS_20rlbox_wasm2c_sandboxEE29check_invoke_param_type_is_okIRNS_7taintedIPcS1_EEEEvv(%"class.rlbox::rlbox_sandbox"* nonnull dereferenceable(3136) %this3)
  call void @_ZN5rlbox13rlbox_sandboxINS_20rlbox_wasm2c_sandboxEE29check_invoke_param_type_is_okIRNS_7taintedIPcS1_EEEEvv(%"class.rlbox::rlbox_sandbox"* nonnull dereferenceable(3136) %this3)
  %0 = bitcast %"class.rlbox::rlbox_sandbox"* %this3 to %"class.rlbox::rlbox_wasm2c_sandbox"*
  %1 = load i8*, i8** %func_ptr.addr, align 8
  %2 = bitcast i8* %1 to i32 (i32, i32)*
  %3 = load %"class.rlbox::tainted.24"*, %"class.rlbox::tainted.24"** %params.addr, align 8
  %call = call i32 @_ZN5rlbox13rlbox_sandboxINS_20rlbox_wasm2c_sandboxEE20invoke_process_paramIRNS_7taintedIPcS1_EEEEDaOT_(%"class.rlbox::rlbox_sandbox"* nonnull dereferenceable(3136) %this3, %"class.rlbox::tainted.24"* nonnull align 8 dereferenceable(8) %3)
  store i32 %call, i32* %ref.tmp, align 4
  %4 = load %"class.rlbox::tainted.24"*, %"class.rlbox::tainted.24"** %params.addr2, align 8
  %call5 = call i32 @_ZN5rlbox13rlbox_sandboxINS_20rlbox_wasm2c_sandboxEE20invoke_process_paramIRNS_7taintedIPcS1_EEEEDaOT_(%"class.rlbox::rlbox_sandbox"* nonnull dereferenceable(3136) %this3, %"class.rlbox::tainted.24"* nonnull align 8 dereferenceable(8) %4)
  store i32 %call5, i32* %ref.tmp4, align 4
  %call6 = call i32 @_ZN5rlbox20rlbox_wasm2c_sandbox25impl_invoke_with_func_ptrIFP11ImageHeaderPcS4_EFjjjEJjjEEEDaPT0_DpOT1_(%"class.rlbox::rlbox_wasm2c_sandbox"* nonnull dereferenceable(2832) %0, i32 (i32, i32)* %2, i32* nonnull align 4 dereferenceable(4) %ref.tmp, i32* nonnull align 4 dereferenceable(4) %ref.tmp4)
  store i32 %call6, i32* %raw_result, align 4
  %call7 = call nonnull align 8 dereferenceable(8) %struct.ImageHeader** @_ZN5rlbox7taintedIP11ImageHeaderNS_20rlbox_wasm2c_sandboxEE17get_raw_value_refEv(%"class.rlbox::tainted.26"* nonnull dereferenceable(8) %wrapped_result) #3
  call void @_ZN5rlbox6detail12convert_typeINS_20rlbox_wasm2c_sandboxELNS0_21adjust_type_directionE1ELNS0_19adjust_type_contextE1EP11ImageHeaderjEEvRT2_RKT3_PKvPNS_13rlbox_sandboxIT_EE(%struct.ImageHeader** nonnull align 8 dereferenceable(8) %call7, i32* nonnull align 4 dereferenceable(4) %raw_result, i8* null, %"class.rlbox::rlbox_sandbox"* %this3)
  %5 = bitcast %"class.rlbox::tainted.26"* %retval to i8*
  %6 = bitcast %"class.rlbox::tainted.26"* %wrapped_result to i8*
  call void @llvm.memcpy.p0i8.p0i8.i64(i8* align 8 %5, i8* align 8 %6, i64 8, i1 false)
  %coerce.dive = getelementptr inbounds %"class.rlbox::tainted.26", %"class.rlbox::tainted.26"* %retval, i32 0, i32 0
  %7 = load %struct.ImageHeader*, %struct.ImageHeader** %coerce.dive, align 8
  ret %struct.ImageHeader* %7
}

declare dso_local i32 @w2c_parse_image_header(%struct.wasm2c_sandbox_t*, i32, i32) #1

; Function Attrs: noinline optnone uwtable mustprogress
define linkonce_odr dso_local %"class.rlbox::tainted_volatile"* @_ZN5rlbox17tainted_base_implINS_7taintedEP11ImageHeaderNS_20rlbox_wasm2c_sandboxEEptEv(%"class.rlbox::tainted_base_impl.27"* nonnull dereferenceable(1) %this) #4 comdat align 2 {
entry:
  %this.addr = alloca %"class.rlbox::tainted_base_impl.27"*, align 8
  store %"class.rlbox::tainted_base_impl.27"* %this, %"class.rlbox::tainted_base_impl.27"** %this.addr, align 8
  %this1 = load %"class.rlbox::tainted_base_impl.27"*, %"class.rlbox::tainted_base_impl.27"** %this.addr, align 8
  %call = call %"class.rlbox::tainted_volatile"* @_ZNK5rlbox17tainted_base_implINS_7taintedEP11ImageHeaderNS_20rlbox_wasm2c_sandboxEEptEv(%"class.rlbox::tainted_base_impl.27"* nonnull dereferenceable(1) %this1)
  ret %"class.rlbox::tainted_volatile"* %call
}

; Function Attrs: noinline optnone uwtable
define linkonce_odr dso_local void @_ZN5rlbox7taintedIjNS_20rlbox_wasm2c_sandboxEEC2ERKNS_16tainted_volatileIjS1_EE(%"class.rlbox::tainted"* nonnull dereferenceable(4) %this, %"class.rlbox::tainted_volatile.28"* nonnull align 4 dereferenceable(4) %p) unnamed_addr #7 comdat align 2 {
entry:
  %this.addr = alloca %"class.rlbox::tainted"*, align 8
  %p.addr = alloca %"class.rlbox::tainted_volatile.28"*, align 8
  %p_data_ref = alloca i8*, align 8
  %example_unsandboxed_ptr = alloca i8*, align 8
  store %"class.rlbox::tainted"* %this, %"class.rlbox::tainted"** %this.addr, align 8
  store %"class.rlbox::tainted_volatile.28"* %p, %"class.rlbox::tainted_volatile.28"** %p.addr, align 8
  %this1 = load %"class.rlbox::tainted"*, %"class.rlbox::tainted"** %this.addr, align 8
  %0 = bitcast %"class.rlbox::tainted"* %this1 to %"class.rlbox::tainted_base_impl"*
  %1 = load %"class.rlbox::tainted_volatile.28"*, %"class.rlbox::tainted_volatile.28"** %p.addr, align 8
  %call = call nonnull align 4 dereferenceable(4) i32* @_ZNK5rlbox16tainted_volatileIjNS_20rlbox_wasm2c_sandboxEE21get_sandbox_value_refEv(%"class.rlbox::tainted_volatile.28"* nonnull dereferenceable(4) %1) #3
  %2 = bitcast i32* %call to i8*
  store i8* %2, i8** %p_data_ref, align 8
  %3 = load i8*, i8** %p_data_ref, align 8
  store i8* %3, i8** %example_unsandboxed_ptr, align 8
  %call2 = call nonnull align 4 dereferenceable(4) i32* @_ZN5rlbox7taintedIjNS_20rlbox_wasm2c_sandboxEE17get_raw_value_refEv(%"class.rlbox::tainted"* nonnull dereferenceable(4) %this1) #3
  %4 = load %"class.rlbox::tainted_volatile.28"*, %"class.rlbox::tainted_volatile.28"** %p.addr, align 8
  %call3 = call nonnull align 4 dereferenceable(4) i32* @_ZNK5rlbox16tainted_volatileIjNS_20rlbox_wasm2c_sandboxEE21get_sandbox_value_refEv(%"class.rlbox::tainted_volatile.28"* nonnull dereferenceable(4) %4) #3
  %5 = load i8*, i8** %example_unsandboxed_ptr, align 8
  call void @_ZN5rlbox6detail22convert_type_non_classINS_20rlbox_wasm2c_sandboxELNS0_21adjust_type_directionE1ELNS0_19adjust_type_contextE0EjVjEEvRT2_RKT3_PKvPNS_13rlbox_sandboxIT_EE(i32* nonnull align 4 dereferenceable(4) %call2, i32* nonnull align 4 dereferenceable(4) %call3, i8* %5, %"class.rlbox::rlbox_sandbox"* null)
  ret void
}

; Function Attrs: noinline optnone uwtable mustprogress
define linkonce_odr dso_local i8 @_ZNK5rlbox17tainted_base_implINS_7taintedEjNS_20rlbox_wasm2c_sandboxEEneIiEEDaRKT_(%"class.rlbox::tainted_base_impl"* nonnull dereferenceable(1) %this, i32* nonnull align 4 dereferenceable(4) %rhs) #4 comdat align 2 {
entry:
  %retval = alloca %"class.rlbox::tainted.30", align 1
  %this.addr = alloca %"class.rlbox::tainted_base_impl"*, align 8
  %rhs.addr = alloca i32*, align 8
  %check_rhs_hint = alloca i8, align 1
  %check_lhs_hint = alloca i8, align 1
  %is_hint = alloca i8, align 1
  %is_unwrapped = alloca i8, align 1
  %ret = alloca i8, align 1
  store %"class.rlbox::tainted_base_impl"* %this, %"class.rlbox::tainted_base_impl"** %this.addr, align 8
  store i32* %rhs, i32** %rhs.addr, align 8
  %this1 = load %"class.rlbox::tainted_base_impl"*, %"class.rlbox::tainted_base_impl"** %this.addr, align 8
  store i8 0, i8* %check_rhs_hint, align 1
  store i8 0, i8* %check_lhs_hint, align 1
  store i8 0, i8* %is_hint, align 1
  store i8 0, i8* %is_unwrapped, align 1
  %call = call nonnull align 4 dereferenceable(4) %"class.rlbox::tainted"* @_ZNK5rlbox17tainted_base_implINS_7taintedEjNS_20rlbox_wasm2c_sandboxEE4implEv(%"class.rlbox::tainted_base_impl"* nonnull dereferenceable(1) %this1)
  %call2 = call i32 @_ZNK5rlbox7taintedIjNS_20rlbox_wasm2c_sandboxEE13get_raw_valueEv(%"class.rlbox::tainted"* nonnull dereferenceable(4) %call) #3
  %0 = load i32*, i32** %rhs.addr, align 8
  %call3 = call i32 @_ZN5rlbox6detail12unwrap_valueIRKiEEDaOT_(i32* nonnull align 4 dereferenceable(4) %0) #3
  %cmp = icmp ne i32 %call2, %call3
  %frombool = zext i1 %cmp to i8
  store i8 %frombool, i8* %ret, align 1
  call void @_ZN5rlbox7taintedIbNS_20rlbox_wasm2c_sandboxEEC2IRbLPv0EEEOT_(%"class.rlbox::tainted.30"* nonnull dereferenceable(1) %retval, i8* nonnull align 1 dereferenceable(1) %ret)
  %coerce.dive = getelementptr inbounds %"class.rlbox::tainted.30", %"class.rlbox::tainted.30"* %retval, i32 0, i32 0
  %1 = load i8, i8* %coerce.dive, align 1
  ret i8 %1
}

; Function Attrs: noinline optnone uwtable mustprogress
define linkonce_odr dso_local zeroext i1 @_ZN5rlbox17tainted_base_implINS_7taintedEbNS_20rlbox_wasm2c_sandboxEE23unverified_safe_becauseILm30EEEDaRAT__Kc(%"class.rlbox::tainted_base_impl.31"* nonnull dereferenceable(1) %this, [30 x i8]* nonnull align 1 dereferenceable(30) %reason) #4 comdat align 2 {
entry:
  %this.addr = alloca %"class.rlbox::tainted_base_impl.31"*, align 8
  %reason.addr = alloca [30 x i8]*, align 8
  store %"class.rlbox::tainted_base_impl.31"* %this, %"class.rlbox::tainted_base_impl.31"** %this.addr, align 8
  store [30 x i8]* %reason, [30 x i8]** %reason.addr, align 8
  %this1 = load %"class.rlbox::tainted_base_impl.31"*, %"class.rlbox::tainted_base_impl.31"** %this.addr, align 8
  %0 = load [30 x i8]*, [30 x i8]** %reason.addr, align 8
  %call = call zeroext i1 @_ZN5rlbox17tainted_base_implINS_7taintedEbNS_20rlbox_wasm2c_sandboxEE17UNSAFE_unverifiedEv(%"class.rlbox::tainted_base_impl.31"* nonnull dereferenceable(1) %this1)
  ret i1 %call
}

; Function Attrs: noinline optnone uwtable mustprogress
define internal i32 @"_ZNK5rlbox17tainted_base_implINS_7taintedEjNS_20rlbox_wasm2c_sandboxEE15copy_and_verifyIZ4mainE3$_1EEDaT_"(%"class.rlbox::tainted_base_impl"* nonnull dereferenceable(1) %this) #4 align 2 {
entry:
  %verifier = alloca %class.anon.32, align 1
  %this.addr = alloca %"class.rlbox::tainted_base_impl"*, align 8
  %cond1 = alloca i8, align 1
  %val = alloca i32, align 4
  store %"class.rlbox::tainted_base_impl"* %this, %"class.rlbox::tainted_base_impl"** %this.addr, align 8
  %this1 = load %"class.rlbox::tainted_base_impl"*, %"class.rlbox::tainted_base_impl"** %this.addr, align 8
  store i8 1, i8* %cond1, align 1
  %call = call nonnull align 4 dereferenceable(4) %"class.rlbox::tainted"* @_ZNK5rlbox17tainted_base_implINS_7taintedEjNS_20rlbox_wasm2c_sandboxEE4implEv(%"class.rlbox::tainted_base_impl"* nonnull dereferenceable(1) %this1)
  %call2 = call i32 @_ZNK5rlbox7taintedIjNS_20rlbox_wasm2c_sandboxEE13get_raw_valueEv(%"class.rlbox::tainted"* nonnull dereferenceable(4) %call) #3
  store i32 %call2, i32* %val, align 4
  %0 = load i32, i32* %val, align 4
  %call3 = call i32 @"_ZZ4mainENK3$_1clEj"(%class.anon.32* nonnull dereferenceable(1) %verifier, i32 %0)
  ret i32 %call3
}

; Function Attrs: noinline optnone uwtable mustprogress
define linkonce_odr dso_local i32 @_ZNK5rlbox17tainted_base_implINS_7taintedEjNS_20rlbox_wasm2c_sandboxEEmlINS1_IjS2_EEEENS1_IDTmlclL_ZSt7declvalIjEDTcl9__declvalIT_ELi0EEEvEEclsr3stdE7declvalINS_6detail27detail_rlbox_remove_wrapper9unwrapperIS7_E4typeEEEES2_EERKS7_(%"class.rlbox::tainted_base_impl"* nonnull dereferenceable(1) %this, %"class.rlbox::tainted"* nonnull align 4 dereferenceable(4) %rhs) #4 comdat align 2 {
entry:
  %retval = alloca %"class.rlbox::tainted", align 4
  %this.addr = alloca %"class.rlbox::tainted_base_impl"*, align 8
  %rhs.addr = alloca %"class.rlbox::tainted"*, align 8
  %raw = alloca i32, align 4
  %raw_rhs = alloca i32, align 4
  %ret = alloca i32, align 4
  store %"class.rlbox::tainted_base_impl"* %this, %"class.rlbox::tainted_base_impl"** %this.addr, align 8
  store %"class.rlbox::tainted"* %rhs, %"class.rlbox::tainted"** %rhs.addr, align 8
  %this1 = load %"class.rlbox::tainted_base_impl"*, %"class.rlbox::tainted_base_impl"** %this.addr, align 8
  %call = call nonnull align 4 dereferenceable(4) %"class.rlbox::tainted"* @_ZNK5rlbox17tainted_base_implINS_7taintedEjNS_20rlbox_wasm2c_sandboxEE4implEv(%"class.rlbox::tainted_base_impl"* nonnull dereferenceable(1) %this1)
  %call2 = call i32 @_ZNK5rlbox7taintedIjNS_20rlbox_wasm2c_sandboxEE13get_raw_valueEv(%"class.rlbox::tainted"* nonnull dereferenceable(4) %call) #3
  store i32 %call2, i32* %raw, align 4
  %0 = load %"class.rlbox::tainted"*, %"class.rlbox::tainted"** %rhs.addr, align 8
  %call3 = call i32 @_ZN5rlbox6detail12unwrap_valueIRKNS_7taintedIjNS_20rlbox_wasm2c_sandboxEEEEEDaOT_(%"class.rlbox::tainted"* nonnull align 4 dereferenceable(4) %0) #3
  store i32 %call3, i32* %raw_rhs, align 4
  %1 = load i32, i32* %raw, align 4
  %2 = load i32, i32* %raw_rhs, align 4
  %mul = mul i32 %1, %2
  store i32 %mul, i32* %ret, align 4
  %call4 = call i32 @_ZN5rlbox7taintedIjNS_20rlbox_wasm2c_sandboxEE16internal_factoryIRjEES2_OT_(i32* nonnull align 4 dereferenceable(4) %ret)
  %coerce.dive = getelementptr inbounds %"class.rlbox::tainted", %"class.rlbox::tainted"* %retval, i32 0, i32 0
  store i32 %call4, i32* %coerce.dive, align 4
  %coerce.dive5 = getelementptr inbounds %"class.rlbox::tainted", %"class.rlbox::tainted"* %retval, i32 0, i32 0
  %3 = load i32, i32* %coerce.dive5, align 4
  ret i32 %3
}

; Function Attrs: noinline optnone uwtable mustprogress
define linkonce_odr dso_local i32 @_ZN5rlbox17tainted_base_implINS_7taintedEjNS_20rlbox_wasm2c_sandboxEE23unverified_safe_becauseILm33EEEDaRAT__Kc(%"class.rlbox::tainted_base_impl"* nonnull dereferenceable(1) %this, [33 x i8]* nonnull align 1 dereferenceable(33) %reason) #4 comdat align 2 {
entry:
  %this.addr = alloca %"class.rlbox::tainted_base_impl"*, align 8
  %reason.addr = alloca [33 x i8]*, align 8
  store %"class.rlbox::tainted_base_impl"* %this, %"class.rlbox::tainted_base_impl"** %this.addr, align 8
  store [33 x i8]* %reason, [33 x i8]** %reason.addr, align 8
  %this1 = load %"class.rlbox::tainted_base_impl"*, %"class.rlbox::tainted_base_impl"** %this.addr, align 8
  %0 = load [33 x i8]*, [33 x i8]** %reason.addr, align 8
  %call = call i32 @_ZN5rlbox17tainted_base_implINS_7taintedEjNS_20rlbox_wasm2c_sandboxEE17UNSAFE_unverifiedEv(%"class.rlbox::tainted_base_impl"* nonnull dereferenceable(1) %this1)
  ret i32 %call
}

; Function Attrs: noinline optnone uwtable mustprogress
define linkonce_odr dso_local zeroext i1 @_ZN5rlbox17tainted_base_implINS_7taintedEPcNS_20rlbox_wasm2c_sandboxEEntEv(%"class.rlbox::tainted_base_impl.25"* nonnull dereferenceable(1) %this) #4 comdat align 2 {
entry:
  %this.addr = alloca %"class.rlbox::tainted_base_impl.25"*, align 8
  %cond1 = alloca i8, align 1
  %ref.tmp = alloca i8*, align 8
  store %"class.rlbox::tainted_base_impl.25"* %this, %"class.rlbox::tainted_base_impl.25"** %this.addr, align 8
  %this1 = load %"class.rlbox::tainted_base_impl.25"*, %"class.rlbox::tainted_base_impl.25"** %this.addr, align 8
  store i8 1, i8* %cond1, align 1
  %call = call nonnull align 8 dereferenceable(8) %"class.rlbox::tainted.24"* @_ZN5rlbox17tainted_base_implINS_7taintedEPcNS_20rlbox_wasm2c_sandboxEE4implEv(%"class.rlbox::tainted_base_impl.25"* nonnull dereferenceable(1) %this1)
  %0 = bitcast %"class.rlbox::tainted.24"* %call to %"class.rlbox::tainted_base_impl.25"*
  store i8* null, i8** %ref.tmp, align 8
  %call2 = call zeroext i1 @_ZNK5rlbox17tainted_base_implINS_7taintedEPcNS_20rlbox_wasm2c_sandboxEEeqIDnEEDaRKT_(%"class.rlbox::tainted_base_impl.25"* nonnull dereferenceable(1) %0, i8** nonnull align 8 dereferenceable(8) %ref.tmp)
  ret i1 %call2
}

declare dso_local nonnull align 8 dereferenceable(8) %"class.std::basic_ostream"* @_ZNSolsEPFRSoS_E(%"class.std::basic_ostream"* nonnull dereferenceable(8), %"class.std::basic_ostream"* (%"class.std::basic_ostream"*)*) #1

; Function Attrs: tainted
declare dso_local nonnull align 8 dereferenceable(8) %"class.std::basic_ostream"* @_ZSt4endlIcSt11char_traitsIcEERSt13basic_ostreamIT_T0_ES6_(%"class.std::basic_ostream"* nonnull align 8 dereferenceable(8)) #10

; Function Attrs: noinline optnone tainted uwtable mustprogress
define linkonce_odr dso_local i32 @_ZN5rlbox17tainted_base_implINS_7taintedEjNS_20rlbox_wasm2c_sandboxEE23unverified_safe_becauseILm19EEEDaRAT__Kc(%"class.rlbox::tainted_base_impl"* nonnull dereferenceable(1) %this, [19 x i8]* nonnull align 1 dereferenceable(19) %reason) #11 comdat align 2 {
entry:
  %this.addr = alloca %"class.rlbox::tainted_base_impl"*, align 8
  %reason.addr = alloca [19 x i8]*, align 8
  store %"class.rlbox::tainted_base_impl"* %this, %"class.rlbox::tainted_base_impl"** %this.addr, align 8
  store [19 x i8]* %reason, [19 x i8]** %reason.addr, align 8
  %this1 = load %"class.rlbox::tainted_base_impl"*, %"class.rlbox::tainted_base_impl"** %this.addr, align 8
  %0 = load [19 x i8]*, [19 x i8]** %reason.addr, align 8
  %call = call i32 @_ZN5rlbox17tainted_base_implINS_7taintedEjNS_20rlbox_wasm2c_sandboxEE17UNSAFE_unverifiedEv(%"class.rlbox::tainted_base_impl"* nonnull dereferenceable(1) %this1)
  ret i32 %call
}

; Function Attrs: noinline optnone uwtable mustprogress
define linkonce_odr dso_local i32 @_ZN5rlboxmlINS_7taintedEjNS_20rlbox_wasm2c_sandboxEiLPv0EEEDaRKT2_RKNS_17tainted_base_implIT_T0_T1_EE(i32* nonnull align 4 dereferenceable(4) %lhs, %"class.rlbox::tainted_base_impl"* nonnull align 1 dereferenceable(1) %rhs) #4 comdat {
entry:
  %retval = alloca %"class.rlbox::tainted", align 4
  %lhs.addr = alloca i32*, align 8
  %rhs.addr = alloca %"class.rlbox::tainted_base_impl"*, align 8
  %ret = alloca %"class.rlbox::tainted", align 4
  %ref.tmp = alloca %"class.rlbox::tainted.65", align 4
  store i32* %lhs, i32** %lhs.addr, align 8
  store %"class.rlbox::tainted_base_impl"* %rhs, %"class.rlbox::tainted_base_impl"** %rhs.addr, align 8
  %0 = load i32*, i32** %lhs.addr, align 8
  call void @_ZN5rlbox7taintedIiNS_20rlbox_wasm2c_sandboxEEC2IRKiLPv0EEEOT_(%"class.rlbox::tainted.65"* nonnull dereferenceable(4) %ref.tmp, i32* nonnull align 4 dereferenceable(4) %0)
  %1 = bitcast %"class.rlbox::tainted.65"* %ref.tmp to %"class.rlbox::tainted_base_impl.66"*
  %2 = load %"class.rlbox::tainted_base_impl"*, %"class.rlbox::tainted_base_impl"** %rhs.addr, align 8
  %call = call nonnull align 4 dereferenceable(4) %"class.rlbox::tainted"* @_ZNK5rlbox17tainted_base_implINS_7taintedEjNS_20rlbox_wasm2c_sandboxEE4implEv(%"class.rlbox::tainted_base_impl"* nonnull dereferenceable(1) %2)
  %call1 = call i32 @_ZNK5rlbox17tainted_base_implINS_7taintedEiNS_20rlbox_wasm2c_sandboxEEmlINS1_IjS2_EEEENS1_IDTmlclL_ZSt7declvalIiEDTcl9__declvalIT_ELi0EEEvEEclsr3stdE7declvalINS_6detail27detail_rlbox_remove_wrapper9unwrapperIS7_E4typeEEEES2_EERKS7_(%"class.rlbox::tainted_base_impl.66"* nonnull dereferenceable(1) %1, %"class.rlbox::tainted"* nonnull align 4 dereferenceable(4) %call)
  %coerce.dive = getelementptr inbounds %"class.rlbox::tainted", %"class.rlbox::tainted"* %ret, i32 0, i32 0
  store i32 %call1, i32* %coerce.dive, align 4
  %3 = bitcast %"class.rlbox::tainted"* %retval to i8*
  %4 = bitcast %"class.rlbox::tainted"* %ret to i8*
  call void @llvm.memcpy.p0i8.p0i8.i64(i8* align 4 %3, i8* align 4 %4, i64 4, i1 false)
  %coerce.dive2 = getelementptr inbounds %"class.rlbox::tainted", %"class.rlbox::tainted"* %retval, i32 0, i32 0
  %5 = load i32, i32* %coerce.dive2, align 4
  ret i32 %5
}

; Function Attrs: noinline optnone uwtable mustprogress
define linkonce_odr dso_local i32 @_ZNK5rlbox17tainted_base_implINS_7taintedEjNS_20rlbox_wasm2c_sandboxEEplIiEENS1_IDTplclL_ZSt7declvalIjEDTcl9__declvalIT_ELi0EEEvEEclsr3stdE7declvalINS_6detail27detail_rlbox_remove_wrapper9unwrapperIS6_E4typeEEEES2_EERKS6_(%"class.rlbox::tainted_base_impl"* nonnull dereferenceable(1) %this, i32* nonnull align 4 dereferenceable(4) %rhs) #4 comdat align 2 {
entry:
  %retval = alloca %"class.rlbox::tainted", align 4
  %this.addr = alloca %"class.rlbox::tainted_base_impl"*, align 8
  %rhs.addr = alloca i32*, align 8
  %raw_rhs = alloca i32, align 4
  %raw = alloca i32, align 4
  %ret = alloca i32, align 4
  store %"class.rlbox::tainted_base_impl"* %this, %"class.rlbox::tainted_base_impl"** %this.addr, align 8
  store i32* %rhs, i32** %rhs.addr, align 8
  %this1 = load %"class.rlbox::tainted_base_impl"*, %"class.rlbox::tainted_base_impl"** %this.addr, align 8
  %0 = load i32*, i32** %rhs.addr, align 8
  %call = call i32 @_ZN5rlbox6detail12unwrap_valueIRKiEEDaOT_(i32* nonnull align 4 dereferenceable(4) %0) #3
  store i32 %call, i32* %raw_rhs, align 4
  %call2 = call nonnull align 4 dereferenceable(4) %"class.rlbox::tainted"* @_ZNK5rlbox17tainted_base_implINS_7taintedEjNS_20rlbox_wasm2c_sandboxEE4implEv(%"class.rlbox::tainted_base_impl"* nonnull dereferenceable(1) %this1)
  %call3 = call i32 @_ZNK5rlbox7taintedIjNS_20rlbox_wasm2c_sandboxEE13get_raw_valueEv(%"class.rlbox::tainted"* nonnull dereferenceable(4) %call2) #3
  store i32 %call3, i32* %raw, align 4
  %1 = load i32, i32* %raw, align 4
  %2 = load i32, i32* %raw_rhs, align 4
  %add = add i32 %1, %2
  store i32 %add, i32* %ret, align 4
  %call4 = call i32 @_ZN5rlbox7taintedIjNS_20rlbox_wasm2c_sandboxEE16internal_factoryIRjEES2_OT_(i32* nonnull align 4 dereferenceable(4) %ret)
  %coerce.dive = getelementptr inbounds %"class.rlbox::tainted", %"class.rlbox::tainted"* %retval, i32 0, i32 0
  store i32 %call4, i32* %coerce.dive, align 4
  %coerce.dive5 = getelementptr inbounds %"class.rlbox::tainted", %"class.rlbox::tainted"* %retval, i32 0, i32 0
  %3 = load i32, i32* %coerce.dive5, align 4
  ret i32 %3
}

; Function Attrs: noinline optnone uwtable mustprogress
define linkonce_odr dso_local nonnull align 1 dereferenceable(1) %"class.rlbox::tainted_volatile.34"* @_ZN5rlbox17tainted_base_implINS_7taintedEPcNS_20rlbox_wasm2c_sandboxEEixIRNS1_IjS3_EEEERNS_16tainted_volatileIcS3_EEOT_(%"class.rlbox::tainted_base_impl.25"* nonnull dereferenceable(1) %this, %"class.rlbox::tainted"* nonnull align 4 dereferenceable(4) %rhs) #4 comdat align 2 {
entry:
  %this.addr = alloca %"class.rlbox::tainted_base_impl.25"*, align 8
  %rhs.addr = alloca %"class.rlbox::tainted"*, align 8
  store %"class.rlbox::tainted_base_impl.25"* %this, %"class.rlbox::tainted_base_impl.25"** %this.addr, align 8
  store %"class.rlbox::tainted"* %rhs, %"class.rlbox::tainted"** %rhs.addr, align 8
  %this1 = load %"class.rlbox::tainted_base_impl.25"*, %"class.rlbox::tainted_base_impl.25"** %this.addr, align 8
  %0 = load %"class.rlbox::tainted"*, %"class.rlbox::tainted"** %rhs.addr, align 8
  %call = call nonnull align 1 dereferenceable(1) %"class.rlbox::tainted_volatile.34"* @_ZNK5rlbox17tainted_base_implINS_7taintedEPcNS_20rlbox_wasm2c_sandboxEEixIRNS1_IjS3_EEEERKNS_16tainted_volatileIcS3_EEOT_(%"class.rlbox::tainted_base_impl.25"* nonnull dereferenceable(1) %this1, %"class.rlbox::tainted"* nonnull align 4 dereferenceable(4) %0)
  ret %"class.rlbox::tainted_volatile.34"* %call
}

; Function Attrs: noinline optnone uwtable mustprogress
define linkonce_odr dso_local signext i8 @_ZN5rlbox17tainted_base_implINS_16tainted_volatileEcNS_20rlbox_wasm2c_sandboxEE23unverified_safe_becauseILm28EEEDaRAT__Kc(%"class.rlbox::tainted_base_impl.35"* nonnull dereferenceable(1) %this, [28 x i8]* nonnull align 1 dereferenceable(28) %reason) #4 comdat align 2 {
entry:
  %this.addr = alloca %"class.rlbox::tainted_base_impl.35"*, align 8
  %reason.addr = alloca [28 x i8]*, align 8
  store %"class.rlbox::tainted_base_impl.35"* %this, %"class.rlbox::tainted_base_impl.35"** %this.addr, align 8
  store [28 x i8]* %reason, [28 x i8]** %reason.addr, align 8
  %this1 = load %"class.rlbox::tainted_base_impl.35"*, %"class.rlbox::tainted_base_impl.35"** %this.addr, align 8
  %0 = load [28 x i8]*, [28 x i8]** %reason.addr, align 8
  %call = call signext i8 @_ZN5rlbox17tainted_base_implINS_16tainted_volatileEcNS_20rlbox_wasm2c_sandboxEE17UNSAFE_unverifiedEv(%"class.rlbox::tainted_base_impl.35"* nonnull dereferenceable(1) %this1)
  ret i8 %call
}

; Function Attrs: noinline optnone uwtable mustprogress
define linkonce_odr dso_local void @_ZN5rlbox13rlbox_sandboxINS_20rlbox_wasm2c_sandboxEE15free_in_sandboxI11ImageHeaderEEvNS_7taintedIPT_S1_EE(%"class.rlbox::rlbox_sandbox"* nonnull dereferenceable(3136) %this, %struct.ImageHeader* %ptr.coerce) #4 comdat align 2 {
entry:
  %ptr = alloca %"class.rlbox::tainted.26", align 8
  %this.addr = alloca %"class.rlbox::rlbox_sandbox"*, align 8
  %coerce.dive = getelementptr inbounds %"class.rlbox::tainted.26", %"class.rlbox::tainted.26"* %ptr, i32 0, i32 0
  store %struct.ImageHeader* %ptr.coerce, %struct.ImageHeader** %coerce.dive, align 8
  store %"class.rlbox::rlbox_sandbox"* %this, %"class.rlbox::rlbox_sandbox"** %this.addr, align 8
  %this1 = load %"class.rlbox::rlbox_sandbox"*, %"class.rlbox::rlbox_sandbox"** %this.addr, align 8
  %sandbox_created = getelementptr inbounds %"class.rlbox::rlbox_sandbox", %"class.rlbox::rlbox_sandbox"* %this1, i32 0, i32 4
  %call = call i32 @_ZNKSt6atomicIN5rlbox13rlbox_sandboxINS0_20rlbox_wasm2c_sandboxEE14Sandbox_StatusEE4loadESt12memory_order(%"struct.std::atomic"* nonnull dereferenceable(4) %sandbox_created, i32 5) #3
  %cmp = icmp ne i32 %call, 2
  br i1 %cmp, label %if.then, label %if.end

if.then:                                          ; preds = %entry
  br label %return

if.end:                                           ; preds = %entry
  %0 = bitcast %"class.rlbox::rlbox_sandbox"* %this1 to %"class.rlbox::rlbox_wasm2c_sandbox"*
  %call2 = call i32 @_ZN5rlbox7taintedIP11ImageHeaderNS_20rlbox_wasm2c_sandboxEE21get_raw_sandbox_valueERNS_13rlbox_sandboxIS3_EE(%"class.rlbox::tainted.26"* nonnull dereferenceable(8) %ptr, %"class.rlbox::rlbox_sandbox"* nonnull align 8 dereferenceable(3136) %this1)
  call void @_ZN5rlbox20rlbox_wasm2c_sandbox20impl_free_in_sandboxEj(%"class.rlbox::rlbox_wasm2c_sandbox"* nonnull dereferenceable(2832) %0, i32 %call2)
  br label %return

return:                                           ; preds = %if.end, %if.then
  ret void
}

; Function Attrs: nobuiltin nounwind
declare dso_local void @_ZdaPv(i8*) #12

; Function Attrs: noinline optnone uwtable mustprogress
define linkonce_odr dso_local void @_ZN5rlbox13rlbox_sandboxINS_20rlbox_wasm2c_sandboxEE15free_in_sandboxIcEEvNS_7taintedIPT_S1_EE(%"class.rlbox::rlbox_sandbox"* nonnull dereferenceable(3136) %this, i8* %ptr.coerce) #4 comdat align 2 {
entry:
  %ptr = alloca %"class.rlbox::tainted.24", align 8
  %this.addr = alloca %"class.rlbox::rlbox_sandbox"*, align 8
  %coerce.dive = getelementptr inbounds %"class.rlbox::tainted.24", %"class.rlbox::tainted.24"* %ptr, i32 0, i32 0
  store i8* %ptr.coerce, i8** %coerce.dive, align 8
  store %"class.rlbox::rlbox_sandbox"* %this, %"class.rlbox::rlbox_sandbox"** %this.addr, align 8
  %this1 = load %"class.rlbox::rlbox_sandbox"*, %"class.rlbox::rlbox_sandbox"** %this.addr, align 8
  %sandbox_created = getelementptr inbounds %"class.rlbox::rlbox_sandbox", %"class.rlbox::rlbox_sandbox"* %this1, i32 0, i32 4
  %call = call i32 @_ZNKSt6atomicIN5rlbox13rlbox_sandboxINS0_20rlbox_wasm2c_sandboxEE14Sandbox_StatusEE4loadESt12memory_order(%"struct.std::atomic"* nonnull dereferenceable(4) %sandbox_created, i32 5) #3
  %cmp = icmp ne i32 %call, 2
  br i1 %cmp, label %if.then, label %if.end

if.then:                                          ; preds = %entry
  br label %return

if.end:                                           ; preds = %entry
  %0 = bitcast %"class.rlbox::rlbox_sandbox"* %this1 to %"class.rlbox::rlbox_wasm2c_sandbox"*
  %call2 = call i32 @_ZN5rlbox7taintedIPcNS_20rlbox_wasm2c_sandboxEE21get_raw_sandbox_valueERNS_13rlbox_sandboxIS2_EE(%"class.rlbox::tainted.24"* nonnull dereferenceable(8) %ptr, %"class.rlbox::rlbox_sandbox"* nonnull align 8 dereferenceable(3136) %this1)
  call void @_ZN5rlbox20rlbox_wasm2c_sandbox20impl_free_in_sandboxEj(%"class.rlbox::rlbox_wasm2c_sandbox"* nonnull dereferenceable(2832) %0, i32 %call2)
  br label %return

return:                                           ; preds = %if.end, %if.then
  ret void
}

; Function Attrs: noinline optnone uwtable mustprogress
define linkonce_odr dso_local void @_ZN5rlbox13rlbox_sandboxINS_20rlbox_wasm2c_sandboxEE15destroy_sandboxEv(%"class.rlbox::rlbox_sandbox"* nonnull dereferenceable(3136) %this) #4 comdat align 2 personality i8* bitcast (i32 (...)* @__gxx_personality_v0 to i8*) {
entry:
  %this.addr = alloca %"class.rlbox::rlbox_sandbox"*, align 8
  %expected = alloca i32, align 4
  %success = alloca i8, align 1
  %lock = alloca %"class.std::unique_lock", align 8
  %el_ref = alloca %"class.__gnu_cxx::__normal_iterator", align 8
  %agg.tmp = alloca %"class.__gnu_cxx::__normal_iterator", align 8
  %agg.tmp3 = alloca %"class.__gnu_cxx::__normal_iterator", align 8
  %ref.tmp = alloca %"class.rlbox::rlbox_sandbox"*, align 8
  %exn.slot = alloca i8*, align 8
  %ehselector.slot = alloca i32, align 4
  %ref.tmp10 = alloca %"class.__gnu_cxx::__normal_iterator", align 8
  %agg.tmp15 = alloca %"class.__gnu_cxx::__normal_iterator.67", align 8
  %coerce = alloca %"class.__gnu_cxx::__normal_iterator", align 8
  store %"class.rlbox::rlbox_sandbox"* %this, %"class.rlbox::rlbox_sandbox"** %this.addr, align 8
  %this1 = load %"class.rlbox::rlbox_sandbox"*, %"class.rlbox::rlbox_sandbox"** %this.addr, align 8
  store i32 2, i32* %expected, align 4
  %sandbox_created = getelementptr inbounds %"class.rlbox::rlbox_sandbox", %"class.rlbox::rlbox_sandbox"* %this1, i32 0, i32 4
  %call = call zeroext i1 @_ZNSt6atomicIN5rlbox13rlbox_sandboxINS0_20rlbox_wasm2c_sandboxEE14Sandbox_StatusEE23compare_exchange_strongERS4_S4_St12memory_order(%"struct.std::atomic"* nonnull dereferenceable(4) %sandbox_created, i32* nonnull align 4 dereferenceable(4) %expected, i32 3, i32 5) #3
  %frombool = zext i1 %call to i8
  store i8 %frombool, i8* %success, align 1
  %0 = load i8, i8* %success, align 1
  %tobool = trunc i8 %0 to i1
  call void @_ZN5rlbox6detail13dynamic_checkEbPKc(i1 zeroext %tobool, i8* getelementptr inbounds ([80 x i8], [80 x i8]* @.str.21, i64 0, i64 0))
  call void @_ZNSt11unique_lockISt18shared_timed_mutexEC2ERS0_(%"class.std::unique_lock"* nonnull dereferenceable(9) %lock, %"class.std::shared_timed_mutex"* nonnull align 8 dereferenceable(56) bitcast ({ %union.pthread_rwlock_t }* @_ZN5rlbox13rlbox_sandboxINS_20rlbox_wasm2c_sandboxEE17sandbox_list_lockE to %"class.std::shared_timed_mutex"*))
  %call2 = call i8** @_ZNSt6vectorIPvSaIS0_EE5beginEv(%"class.std::vector"* nonnull dereferenceable(24) @_ZN5rlbox13rlbox_sandboxINS_20rlbox_wasm2c_sandboxEE12sandbox_listE) #3
  %coerce.dive = getelementptr inbounds %"class.__gnu_cxx::__normal_iterator", %"class.__gnu_cxx::__normal_iterator"* %agg.tmp, i32 0, i32 0
  store i8** %call2, i8*** %coerce.dive, align 8
  %call4 = call i8** @_ZNSt6vectorIPvSaIS0_EE3endEv(%"class.std::vector"* nonnull dereferenceable(24) @_ZN5rlbox13rlbox_sandboxINS_20rlbox_wasm2c_sandboxEE12sandbox_listE) #3
  %coerce.dive5 = getelementptr inbounds %"class.__gnu_cxx::__normal_iterator", %"class.__gnu_cxx::__normal_iterator"* %agg.tmp3, i32 0, i32 0
  store i8** %call4, i8*** %coerce.dive5, align 8
  store %"class.rlbox::rlbox_sandbox"* %this1, %"class.rlbox::rlbox_sandbox"** %ref.tmp, align 8
  %coerce.dive6 = getelementptr inbounds %"class.__gnu_cxx::__normal_iterator", %"class.__gnu_cxx::__normal_iterator"* %agg.tmp, i32 0, i32 0
  %1 = load i8**, i8*** %coerce.dive6, align 8
  %coerce.dive7 = getelementptr inbounds %"class.__gnu_cxx::__normal_iterator", %"class.__gnu_cxx::__normal_iterator"* %agg.tmp3, i32 0, i32 0
  %2 = load i8**, i8*** %coerce.dive7, align 8
  %call8 = invoke i8** @_ZSt4findIN9__gnu_cxx17__normal_iteratorIPPvSt6vectorIS2_SaIS2_EEEEPN5rlbox13rlbox_sandboxINS8_20rlbox_wasm2c_sandboxEEEET_SD_SD_RKT0_(i8** %1, i8** %2, %"class.rlbox::rlbox_sandbox"** nonnull align 8 dereferenceable(8) %ref.tmp)
          to label %invoke.cont unwind label %lpad

invoke.cont:                                      ; preds = %entry
  %coerce.dive9 = getelementptr inbounds %"class.__gnu_cxx::__normal_iterator", %"class.__gnu_cxx::__normal_iterator"* %el_ref, i32 0, i32 0
  store i8** %call8, i8*** %coerce.dive9, align 8
  %call11 = call i8** @_ZNSt6vectorIPvSaIS0_EE3endEv(%"class.std::vector"* nonnull dereferenceable(24) @_ZN5rlbox13rlbox_sandboxINS_20rlbox_wasm2c_sandboxEE12sandbox_listE) #3
  %coerce.dive12 = getelementptr inbounds %"class.__gnu_cxx::__normal_iterator", %"class.__gnu_cxx::__normal_iterator"* %ref.tmp10, i32 0, i32 0
  store i8** %call11, i8*** %coerce.dive12, align 8
  %call13 = call zeroext i1 @_ZN9__gnu_cxxneIPPvSt6vectorIS1_SaIS1_EEEEbRKNS_17__normal_iteratorIT_T0_EESB_(%"class.__gnu_cxx::__normal_iterator"* nonnull align 8 dereferenceable(8) %el_ref, %"class.__gnu_cxx::__normal_iterator"* nonnull align 8 dereferenceable(8) %ref.tmp10) #3
  invoke void @_ZN5rlbox6detail13dynamic_checkEbPKc(i1 zeroext %call13, i8* getelementptr inbounds ([67 x i8], [67 x i8]* @.str.22, i64 0, i64 0))
          to label %invoke.cont14 unwind label %lpad

invoke.cont14:                                    ; preds = %invoke.cont
  call void @_ZN9__gnu_cxx17__normal_iteratorIPKPvSt6vectorIS1_SaIS1_EEEC2IPS1_EERKNS0_IT_NS_11__enable_ifIXsr3std10__are_sameISA_S9_EE7__valueES6_E6__typeEEE(%"class.__gnu_cxx::__normal_iterator.67"* nonnull dereferenceable(8) %agg.tmp15, %"class.__gnu_cxx::__normal_iterator"* nonnull align 8 dereferenceable(8) %el_ref) #3
  %coerce.dive16 = getelementptr inbounds %"class.__gnu_cxx::__normal_iterator.67", %"class.__gnu_cxx::__normal_iterator.67"* %agg.tmp15, i32 0, i32 0
  %3 = load i8**, i8*** %coerce.dive16, align 8
  %call18 = invoke i8** @_ZNSt6vectorIPvSaIS0_EE5eraseEN9__gnu_cxx17__normal_iteratorIPKS0_S2_EE(%"class.std::vector"* nonnull dereferenceable(24) @_ZN5rlbox13rlbox_sandboxINS_20rlbox_wasm2c_sandboxEE12sandbox_listE, i8** %3)
          to label %invoke.cont17 unwind label %lpad

invoke.cont17:                                    ; preds = %invoke.cont14
  %coerce.dive19 = getelementptr inbounds %"class.__gnu_cxx::__normal_iterator", %"class.__gnu_cxx::__normal_iterator"* %coerce, i32 0, i32 0
  store i8** %call18, i8*** %coerce.dive19, align 8
  call void @_ZNSt11unique_lockISt18shared_timed_mutexED2Ev(%"class.std::unique_lock"* nonnull dereferenceable(9) %lock) #3
  %sandbox_created20 = getelementptr inbounds %"class.rlbox::rlbox_sandbox", %"class.rlbox::rlbox_sandbox"* %this1, i32 0, i32 4
  call void @_ZNSt6atomicIN5rlbox13rlbox_sandboxINS0_20rlbox_wasm2c_sandboxEE14Sandbox_StatusEE5storeES4_St12memory_order(%"struct.std::atomic"* nonnull dereferenceable(4) %sandbox_created20, i32 0, i32 5) #3
  %4 = bitcast %"class.rlbox::rlbox_sandbox"* %this1 to %"class.rlbox::rlbox_wasm2c_sandbox"*
  call void @_ZN5rlbox20rlbox_wasm2c_sandbox20impl_destroy_sandboxEv(%"class.rlbox::rlbox_wasm2c_sandbox"* nonnull dereferenceable(2832) %4)
  ret void

lpad:                                             ; preds = %invoke.cont14, %invoke.cont, %entry
  %5 = landingpad { i8*, i32 }
          cleanup
  %6 = extractvalue { i8*, i32 } %5, 0
  store i8* %6, i8** %exn.slot, align 8
  %7 = extractvalue { i8*, i32 } %5, 1
  store i32 %7, i32* %ehselector.slot, align 4
  call void @_ZNSt11unique_lockISt18shared_timed_mutexED2Ev(%"class.std::unique_lock"* nonnull dereferenceable(9) %lock) #3
  br label %eh.resume

eh.resume:                                        ; preds = %lpad
  %exn = load i8*, i8** %exn.slot, align 8
  %sel = load i32, i32* %ehselector.slot, align 4
  %lpad.val = insertvalue { i8*, i32 } undef, i8* %exn, 0
  %lpad.val21 = insertvalue { i8*, i32 } %lpad.val, i32 %sel, 1
  resume { i8*, i32 } %lpad.val21
}

; Function Attrs: noinline nounwind optnone uwtable
define linkonce_odr dso_local void @_ZN5rlbox13rlbox_sandboxINS_20rlbox_wasm2c_sandboxEED2Ev(%"class.rlbox::rlbox_sandbox"* nonnull dereferenceable(3136) %this) unnamed_addr #13 comdat align 2 {
entry:
  %this.addr = alloca %"class.rlbox::rlbox_sandbox"*, align 8
  store %"class.rlbox::rlbox_sandbox"* %this, %"class.rlbox::rlbox_sandbox"** %this.addr, align 8
  %this1 = load %"class.rlbox::rlbox_sandbox"*, %"class.rlbox::rlbox_sandbox"** %this.addr, align 8
  %callback_keys = getelementptr inbounds %"class.rlbox::rlbox_sandbox", %"class.rlbox::rlbox_sandbox"* %this1, i32 0, i32 6
  call void @_ZNSt6vectorIPvSaIS0_EED2Ev(%"class.std::vector"* nonnull dereferenceable(24) %callback_keys) #3
  %app_ptr_map = getelementptr inbounds %"class.rlbox::rlbox_sandbox", %"class.rlbox::rlbox_sandbox"* %this1, i32 0, i32 3
  call void @_ZN5rlbox15app_pointer_mapIjED2Ev(%"class.rlbox::app_pointer_map"* nonnull dereferenceable(112) %app_ptr_map) #3
  %func_ptr_map = getelementptr inbounds %"class.rlbox::rlbox_sandbox", %"class.rlbox::rlbox_sandbox"* %this1, i32 0, i32 2
  call void @_ZNSt3mapINSt7__cxx1112basic_stringIcSt11char_traitsIcESaIcEEEPvSt4lessIS5_ESaISt4pairIKS5_S6_EEED2Ev(%"class.std::map.8"* nonnull dereferenceable(48) %func_ptr_map) #3
  %0 = bitcast %"class.rlbox::rlbox_sandbox"* %this1 to %"class.rlbox::rlbox_wasm2c_sandbox"*
  call void @_ZN5rlbox20rlbox_wasm2c_sandboxD2Ev(%"class.rlbox::rlbox_wasm2c_sandbox"* nonnull dereferenceable(2832) %0) #3
  ret void
}

; Function Attrs: noinline uwtable
define internal void @__cxx_global_var_init.12() #0 section ".text.startup" comdat($_ZN5rlbox13rlbox_sandboxINS_20rlbox_wasm2c_sandboxEE12sandbox_listE) {
entry:
  %0 = load i8, i8* bitcast (i64* @_ZGVN5rlbox13rlbox_sandboxINS_20rlbox_wasm2c_sandboxEE12sandbox_listE to i8*), align 8
  %guard.uninitialized = icmp eq i8 %0, 0
  br i1 %guard.uninitialized, label %init.check, label %init.end

init.check:                                       ; preds = %entry
  call void @_ZNSt6vectorIPvSaIS0_EEC2Ev(%"class.std::vector"* nonnull dereferenceable(24) @_ZN5rlbox13rlbox_sandboxINS_20rlbox_wasm2c_sandboxEE12sandbox_listE) #3
  %1 = call i32 @__cxa_atexit(void (i8*)* bitcast (void (%"class.std::vector"*)* @_ZNSt6vectorIPvSaIS0_EED2Ev to void (i8*)*), i8* bitcast (%"class.std::vector"* @_ZN5rlbox13rlbox_sandboxINS_20rlbox_wasm2c_sandboxEE12sandbox_listE to i8*), i8* @__dso_handle) #3
  store i64 1, i64* @_ZGVN5rlbox13rlbox_sandboxINS_20rlbox_wasm2c_sandboxEE12sandbox_listE, align 8
  br label %init.end

init.end:                                         ; preds = %init.check, %entry
  ret void
}

; Function Attrs: noinline nounwind optnone uwtable
define linkonce_odr dso_local void @_ZNSt6vectorIPvSaIS0_EEC2Ev(%"class.std::vector"* nonnull dereferenceable(24) %this) unnamed_addr #13 comdat align 2 {
entry:
  %this.addr = alloca %"class.std::vector"*, align 8
  store %"class.std::vector"* %this, %"class.std::vector"** %this.addr, align 8
  %this1 = load %"class.std::vector"*, %"class.std::vector"** %this.addr, align 8
  %0 = bitcast %"class.std::vector"* %this1 to %"struct.std::_Vector_base"*
  call void @_ZNSt12_Vector_baseIPvSaIS0_EEC2Ev(%"struct.std::_Vector_base"* nonnull dereferenceable(24) %0) #3
  ret void
}

; Function Attrs: noinline nounwind optnone uwtable
define linkonce_odr dso_local void @_ZNSt6vectorIPvSaIS0_EED2Ev(%"class.std::vector"* nonnull dereferenceable(24) %this) unnamed_addr #13 comdat align 2 personality i8* bitcast (i32 (...)* @__gxx_personality_v0 to i8*) {
entry:
  %this.addr = alloca %"class.std::vector"*, align 8
  %exn.slot = alloca i8*, align 8
  %ehselector.slot = alloca i32, align 4
  store %"class.std::vector"* %this, %"class.std::vector"** %this.addr, align 8
  %this1 = load %"class.std::vector"*, %"class.std::vector"** %this.addr, align 8
  %0 = bitcast %"class.std::vector"* %this1 to %"struct.std::_Vector_base"*
  %_M_impl = getelementptr inbounds %"struct.std::_Vector_base", %"struct.std::_Vector_base"* %0, i32 0, i32 0
  %1 = bitcast %"struct.std::_Vector_base<void *, std::allocator<void *>>::_Vector_impl"* %_M_impl to %"struct.std::_Vector_base<void *, std::allocator<void *>>::_Vector_impl_data"*
  %_M_start = getelementptr inbounds %"struct.std::_Vector_base<void *, std::allocator<void *>>::_Vector_impl_data", %"struct.std::_Vector_base<void *, std::allocator<void *>>::_Vector_impl_data"* %1, i32 0, i32 0
  %2 = load i8**, i8*** %_M_start, align 8
  %3 = bitcast %"class.std::vector"* %this1 to %"struct.std::_Vector_base"*
  %_M_impl2 = getelementptr inbounds %"struct.std::_Vector_base", %"struct.std::_Vector_base"* %3, i32 0, i32 0
  %4 = bitcast %"struct.std::_Vector_base<void *, std::allocator<void *>>::_Vector_impl"* %_M_impl2 to %"struct.std::_Vector_base<void *, std::allocator<void *>>::_Vector_impl_data"*
  %_M_finish = getelementptr inbounds %"struct.std::_Vector_base<void *, std::allocator<void *>>::_Vector_impl_data", %"struct.std::_Vector_base<void *, std::allocator<void *>>::_Vector_impl_data"* %4, i32 0, i32 1
  %5 = load i8**, i8*** %_M_finish, align 8
  %6 = bitcast %"class.std::vector"* %this1 to %"struct.std::_Vector_base"*
  %call = call nonnull align 1 dereferenceable(1) %"class.std::allocator.21"* @_ZNSt12_Vector_baseIPvSaIS0_EE19_M_get_Tp_allocatorEv(%"struct.std::_Vector_base"* nonnull dereferenceable(24) %6) #3
  invoke void @_ZSt8_DestroyIPPvS0_EvT_S2_RSaIT0_E(i8** %2, i8** %5, %"class.std::allocator.21"* nonnull align 1 dereferenceable(1) %call)
          to label %invoke.cont unwind label %lpad

invoke.cont:                                      ; preds = %entry
  %7 = bitcast %"class.std::vector"* %this1 to %"struct.std::_Vector_base"*
  call void @_ZNSt12_Vector_baseIPvSaIS0_EED2Ev(%"struct.std::_Vector_base"* nonnull dereferenceable(24) %7) #3
  ret void

lpad:                                             ; preds = %entry
  %8 = landingpad { i8*, i32 }
          catch i8* null
  %9 = extractvalue { i8*, i32 } %8, 0
  store i8* %9, i8** %exn.slot, align 8
  %10 = extractvalue { i8*, i32 } %8, 1
  store i32 %10, i32* %ehselector.slot, align 4
  %11 = bitcast %"class.std::vector"* %this1 to %"struct.std::_Vector_base"*
  call void @_ZNSt12_Vector_baseIPvSaIS0_EED2Ev(%"struct.std::_Vector_base"* nonnull dereferenceable(24) %11) #3
  br label %terminate.handler

terminate.handler:                                ; preds = %lpad
  %exn = load i8*, i8** %exn.slot, align 8
  call void @__clang_call_terminate(i8* %exn) #24
  unreachable
}

; Function Attrs: noinline nounwind optnone uwtable mustprogress
define linkonce_odr dso_local nonnull align 4 dereferenceable(4) %"class.rlbox::tainted"* @_ZNK5rlbox17tainted_base_implINS_7taintedEjNS_20rlbox_wasm2c_sandboxEE4implEv(%"class.rlbox::tainted_base_impl"* nonnull dereferenceable(1) %this) #5 comdat align 2 {
entry:
  %this.addr = alloca %"class.rlbox::tainted_base_impl"*, align 8
  store %"class.rlbox::tainted_base_impl"* %this, %"class.rlbox::tainted_base_impl"** %this.addr, align 8
  %this1 = load %"class.rlbox::tainted_base_impl"*, %"class.rlbox::tainted_base_impl"** %this.addr, align 8
  %0 = bitcast %"class.rlbox::tainted_base_impl"* %this1 to %"class.rlbox::tainted"*
  ret %"class.rlbox::tainted"* %0
}

; Function Attrs: noinline nounwind optnone uwtable mustprogress
define linkonce_odr dso_local i32 @_ZNK5rlbox7taintedIjNS_20rlbox_wasm2c_sandboxEE13get_raw_valueEv(%"class.rlbox::tainted"* nonnull dereferenceable(4) %this) #5 comdat align 2 {
entry:
  %this.addr = alloca %"class.rlbox::tainted"*, align 8
  store %"class.rlbox::tainted"* %this, %"class.rlbox::tainted"** %this.addr, align 8
  %this1 = load %"class.rlbox::tainted"*, %"class.rlbox::tainted"** %this.addr, align 8
  %data = getelementptr inbounds %"class.rlbox::tainted", %"class.rlbox::tainted"* %this1, i32 0, i32 0
  %0 = load i32, i32* %data, align 4
  ret i32 %0
}

; Function Attrs: noinline nounwind optnone uwtable mustprogress
define internal i32 @"_ZZ22image_parsing_progressRN5rlbox13rlbox_sandboxINS_20rlbox_wasm2c_sandboxEEENS_7taintedIjS1_EEENK3$_0clEj"(%class.anon* nonnull dereferenceable(1) %this, i32 %value) #5 align 2 {
entry:
  %this.addr = alloca %class.anon*, align 8
  %value.addr = alloca i32, align 4
  store %class.anon* %this, %class.anon** %this.addr, align 8
  store i32 %value, i32* %value.addr, align 4
  %this1 = load %class.anon*, %class.anon** %this.addr, align 8
  %0 = load i32, i32* %value.addr, align 4
  %cmp = icmp uge i32 %0, 1
  br i1 %cmp, label %land.rhs, label %land.end

land.rhs:                                         ; preds = %entry
  %1 = load i32, i32* %value.addr, align 4
  %cmp2 = icmp ule i32 %1, 100
  br label %land.end

land.end:                                         ; preds = %land.rhs, %entry
  %2 = phi i1 [ false, %entry ], [ %cmp2, %land.rhs ]
  br i1 %2, label %cond.true, label %cond.false

cond.true:                                        ; preds = %land.end
  br label %cond.end

cond.false:                                       ; preds = %land.end
  call void @__assert_fail(i8* getelementptr inbounds ([26 x i8], [26 x i8]* @.str.13, i64 0, i64 0), i8* getelementptr inbounds ([13 x i8], [13 x i8]* @.str.14, i64 0, i64 0), i32 57, i8* getelementptr inbounds ([139 x i8], [139 x i8]* @"__PRETTY_FUNCTION__._ZZ22image_parsing_progressRN5rlbox13rlbox_sandboxINS_20rlbox_wasm2c_sandboxEEENS_7taintedIjS1_EEENK3$_0clEj", i64 0, i64 0)) #24
  unreachable

3:                                                ; No predecessors!
  br label %cond.end

cond.end:                                         ; preds = %3, %cond.true
  %4 = load i32, i32* %value.addr, align 4
  ret i32 %4
}

; Function Attrs: noreturn nounwind
declare dso_local void @__assert_fail(i8*, i8*, i32, i8*) #14

; Function Attrs: noinline nounwind optnone uwtable
define linkonce_odr dso_local void @_ZN5rlbox20rlbox_wasm2c_sandboxC2Ev(%"class.rlbox::rlbox_wasm2c_sandbox"* nonnull dereferenceable(2832) %this) unnamed_addr #13 comdat align 2 {
entry:
  %this.addr = alloca %"class.rlbox::rlbox_wasm2c_sandbox"*, align 8
  store %"class.rlbox::rlbox_wasm2c_sandbox"* %this, %"class.rlbox::rlbox_wasm2c_sandbox"** %this.addr, align 8
  %this1 = load %"class.rlbox::rlbox_wasm2c_sandbox"*, %"class.rlbox::rlbox_wasm2c_sandbox"** %this.addr, align 8
  %sandbox = getelementptr inbounds %"class.rlbox::rlbox_wasm2c_sandbox", %"class.rlbox::rlbox_wasm2c_sandbox"* %this1, i32 0, i32 0
  store i8* null, i8** %sandbox, align 8
  %sandbox_info = getelementptr inbounds %"class.rlbox::rlbox_wasm2c_sandbox", %"class.rlbox::rlbox_wasm2c_sandbox"* %this1, i32 0, i32 1
  %sandbox_memory_info = getelementptr inbounds %"class.rlbox::rlbox_wasm2c_sandbox", %"class.rlbox::rlbox_wasm2c_sandbox"* %this1, i32 0, i32 2
  store %struct.wasm_rt_memory_t* null, %struct.wasm_rt_memory_t** %sandbox_memory_info, align 8
  %exec_env = getelementptr inbounds %"class.rlbox::rlbox_wasm2c_sandbox", %"class.rlbox::rlbox_wasm2c_sandbox"* %this1, i32 0, i32 4
  store i8* null, i8** %exec_env, align 8
  %malloc_index = getelementptr inbounds %"class.rlbox::rlbox_wasm2c_sandbox", %"class.rlbox::rlbox_wasm2c_sandbox"* %this1, i32 0, i32 5
  store i8* null, i8** %malloc_index, align 8
  %free_index = getelementptr inbounds %"class.rlbox::rlbox_wasm2c_sandbox", %"class.rlbox::rlbox_wasm2c_sandbox"* %this1, i32 0, i32 6
  store i8* null, i8** %free_index, align 8
  %return_slot_size = getelementptr inbounds %"class.rlbox::rlbox_wasm2c_sandbox", %"class.rlbox::rlbox_wasm2c_sandbox"* %this1, i32 0, i32 7
  store i64 0, i64* %return_slot_size, align 8
  %return_slot = getelementptr inbounds %"class.rlbox::rlbox_wasm2c_sandbox", %"class.rlbox::rlbox_wasm2c_sandbox"* %this1, i32 0, i32 8
  store i32 0, i32* %return_slot, align 8
  %callback_mutex = getelementptr inbounds %"class.rlbox::rlbox_wasm2c_sandbox", %"class.rlbox::rlbox_wasm2c_sandbox"* %this1, i32 0, i32 9
  call void @_ZNSt18shared_timed_mutexC2Ev(%"class.std::shared_timed_mutex"* nonnull dereferenceable(56) %callback_mutex) #3
  %callback_unique_keys = getelementptr inbounds %"class.rlbox::rlbox_wasm2c_sandbox", %"class.rlbox::rlbox_wasm2c_sandbox"* %this1, i32 0, i32 10
  %arrayinit.begin = getelementptr inbounds [128 x i8*], [128 x i8*]* %callback_unique_keys, i64 0, i64 0
  store i8* null, i8** %arrayinit.begin, align 8
  %arrayinit.start = getelementptr inbounds i8*, i8** %arrayinit.begin, i64 1
  %arrayinit.end = getelementptr inbounds i8*, i8** %arrayinit.begin, i64 128
  br label %arrayinit.body

arrayinit.body:                                   ; preds = %arrayinit.body, %entry
  %arrayinit.cur = phi i8** [ %arrayinit.start, %entry ], [ %arrayinit.next, %arrayinit.body ]
  store i8* null, i8** %arrayinit.cur, align 8
  %arrayinit.next = getelementptr inbounds i8*, i8** %arrayinit.cur, i64 1
  %arrayinit.done = icmp eq i8** %arrayinit.next, %arrayinit.end
  br i1 %arrayinit.done, label %arrayinit.end2, label %arrayinit.body

arrayinit.end2:                                   ; preds = %arrayinit.body
  %callbacks = getelementptr inbounds %"class.rlbox::rlbox_wasm2c_sandbox", %"class.rlbox::rlbox_wasm2c_sandbox"* %this1, i32 0, i32 11
  %arrayinit.begin3 = getelementptr inbounds [128 x i8*], [128 x i8*]* %callbacks, i64 0, i64 0
  store i8* null, i8** %arrayinit.begin3, align 8
  %arrayinit.start4 = getelementptr inbounds i8*, i8** %arrayinit.begin3, i64 1
  %arrayinit.end5 = getelementptr inbounds i8*, i8** %arrayinit.begin3, i64 128
  br label %arrayinit.body6

arrayinit.body6:                                  ; preds = %arrayinit.body6, %arrayinit.end2
  %arrayinit.cur7 = phi i8** [ %arrayinit.start4, %arrayinit.end2 ], [ %arrayinit.next8, %arrayinit.body6 ]
  store i8* null, i8** %arrayinit.cur7, align 8
  %arrayinit.next8 = getelementptr inbounds i8*, i8** %arrayinit.cur7, i64 1
  %arrayinit.done9 = icmp eq i8** %arrayinit.next8, %arrayinit.end5
  br i1 %arrayinit.done9, label %arrayinit.end10, label %arrayinit.body6

arrayinit.end10:                                  ; preds = %arrayinit.body6
  %callback_slot_assignment = getelementptr inbounds %"class.rlbox::rlbox_wasm2c_sandbox", %"class.rlbox::rlbox_wasm2c_sandbox"* %this1, i32 0, i32 12
  %arrayinit.begin11 = getelementptr inbounds [128 x i32], [128 x i32]* %callback_slot_assignment, i64 0, i64 0
  store i32 0, i32* %arrayinit.begin11, align 4
  %arrayinit.start12 = getelementptr inbounds i32, i32* %arrayinit.begin11, i64 1
  %arrayinit.end13 = getelementptr inbounds i32, i32* %arrayinit.begin11, i64 128
  br label %arrayinit.body14

arrayinit.body14:                                 ; preds = %arrayinit.body14, %arrayinit.end10
  %arrayinit.cur15 = phi i32* [ %arrayinit.start12, %arrayinit.end10 ], [ %arrayinit.next16, %arrayinit.body14 ]
  store i32 0, i32* %arrayinit.cur15, align 4
  %arrayinit.next16 = getelementptr inbounds i32, i32* %arrayinit.cur15, i64 1
  %arrayinit.done17 = icmp eq i32* %arrayinit.next16, %arrayinit.end13
  br i1 %arrayinit.done17, label %arrayinit.end18, label %arrayinit.body14

arrayinit.end18:                                  ; preds = %arrayinit.body14
  %internal_callbacks = getelementptr inbounds %"class.rlbox::rlbox_wasm2c_sandbox", %"class.rlbox::rlbox_wasm2c_sandbox"* %this1, i32 0, i32 13
  call void @_ZNSt3mapIPKvjSt4lessIS1_ESaISt4pairIKS1_jEEEC2Ev(%"class.std::map"* nonnull dereferenceable(48) %internal_callbacks) #3
  %slot_assignments = getelementptr inbounds %"class.rlbox::rlbox_wasm2c_sandbox", %"class.rlbox::rlbox_wasm2c_sandbox"* %this1, i32 0, i32 14
  call void @_ZNSt3mapIjPKvSt4lessIjESaISt4pairIKjS1_EEEC2Ev(%"class.std::map.0"* nonnull dereferenceable(48) %slot_assignments) #3
  ret void
}

; Function Attrs: noinline nounwind optnone uwtable
define linkonce_odr dso_local void @_ZNSt18shared_timed_mutexC2Ev(%"class.std::shared_timed_mutex"* nonnull dereferenceable(56) %this) unnamed_addr #13 comdat align 2 {
entry:
  %this.addr = alloca %"class.std::shared_timed_mutex"*, align 8
  store %"class.std::shared_timed_mutex"* %this, %"class.std::shared_timed_mutex"** %this.addr, align 8
  %this1 = load %"class.std::shared_timed_mutex"*, %"class.std::shared_timed_mutex"** %this.addr, align 8
  %0 = bitcast %"class.std::shared_timed_mutex"* %this1 to %"class.std::__shared_mutex_pthread"*
  call void @_ZNSt22__shared_mutex_pthreadC2Ev(%"class.std::__shared_mutex_pthread"* nonnull dereferenceable(56) %0) #3
  ret void
}

; Function Attrs: noinline nounwind optnone uwtable
define linkonce_odr dso_local void @_ZNSt3mapINSt7__cxx1112basic_stringIcSt11char_traitsIcESaIcEEEPvSt4lessIS5_ESaISt4pairIKS5_S6_EEEC2Ev(%"class.std::map.8"* nonnull dereferenceable(48) %this) unnamed_addr #13 comdat align 2 {
entry:
  %this.addr = alloca %"class.std::map.8"*, align 8
  store %"class.std::map.8"* %this, %"class.std::map.8"** %this.addr, align 8
  %this1 = load %"class.std::map.8"*, %"class.std::map.8"** %this.addr, align 8
  %_M_t = getelementptr inbounds %"class.std::map.8", %"class.std::map.8"* %this1, i32 0, i32 0
  call void @_ZNSt8_Rb_treeINSt7__cxx1112basic_stringIcSt11char_traitsIcESaIcEEESt4pairIKS5_PvESt10_Select1stIS9_ESt4lessIS5_ESaIS9_EEC2Ev(%"class.std::_Rb_tree.9"* nonnull dereferenceable(48) %_M_t) #3
  ret void
}

; Function Attrs: noinline optnone uwtable
define linkonce_odr dso_local void @_ZN5rlbox15app_pointer_mapIjEC2Ev(%"class.rlbox::app_pointer_map"* nonnull dereferenceable(112) %this) unnamed_addr #7 comdat align 2 personality i8* bitcast (i32 (...)* @__gxx_personality_v0 to i8*) {
entry:
  %this.addr = alloca %"class.rlbox::app_pointer_map"*, align 8
  %ref.tmp = alloca i32, align 4
  %exn.slot = alloca i8*, align 8
  %ehselector.slot = alloca i32, align 4
  store %"class.rlbox::app_pointer_map"* %this, %"class.rlbox::app_pointer_map"** %this.addr, align 8
  %this1 = load %"class.rlbox::app_pointer_map"*, %"class.rlbox::app_pointer_map"** %this.addr, align 8
  %pointer_map = getelementptr inbounds %"class.rlbox::app_pointer_map", %"class.rlbox::app_pointer_map"* %this1, i32 0, i32 0
  call void @_ZNSt3mapIjPvSt4lessIjESaISt4pairIKjS0_EEEC2Ev(%"class.std::map.16"* nonnull dereferenceable(48) %pointer_map) #3
  %counter = getelementptr inbounds %"class.rlbox::app_pointer_map", %"class.rlbox::app_pointer_map"* %this1, i32 0, i32 1
  store i32 1, i32* %counter, align 8
  %map_mutex = getelementptr inbounds %"class.rlbox::app_pointer_map", %"class.rlbox::app_pointer_map"* %this1, i32 0, i32 2
  call void @_ZNSt18shared_timed_mutexC2Ev(%"class.std::shared_timed_mutex"* nonnull dereferenceable(56) %map_mutex) #3
  %pointer_map2 = getelementptr inbounds %"class.rlbox::app_pointer_map", %"class.rlbox::app_pointer_map"* %this1, i32 0, i32 0
  store i32 0, i32* %ref.tmp, align 4
  %call = invoke nonnull align 8 dereferenceable(8) i8** @_ZNSt3mapIjPvSt4lessIjESaISt4pairIKjS0_EEEixEOj(%"class.std::map.16"* nonnull dereferenceable(48) %pointer_map2, i32* nonnull align 4 dereferenceable(4) %ref.tmp)
          to label %invoke.cont unwind label %lpad

invoke.cont:                                      ; preds = %entry
  store i8* null, i8** %call, align 8
  ret void

lpad:                                             ; preds = %entry
  %0 = landingpad { i8*, i32 }
          cleanup
  %1 = extractvalue { i8*, i32 } %0, 0
  store i8* %1, i8** %exn.slot, align 8
  %2 = extractvalue { i8*, i32 } %0, 1
  store i32 %2, i32* %ehselector.slot, align 4
  call void @_ZNSt3mapIjPvSt4lessIjESaISt4pairIKjS0_EEED2Ev(%"class.std::map.16"* nonnull dereferenceable(48) %pointer_map) #3
  br label %eh.resume

eh.resume:                                        ; preds = %lpad
  %exn = load i8*, i8** %exn.slot, align 8
  %sel = load i32, i32* %ehselector.slot, align 4
  %lpad.val = insertvalue { i8*, i32 } undef, i8* %exn, 0
  %lpad.val3 = insertvalue { i8*, i32 } %lpad.val, i32 %sel, 1
  resume { i8*, i32 } %lpad.val3
}

; Function Attrs: noinline nounwind optnone uwtable
define linkonce_odr dso_local void @_ZNSt6atomicIN5rlbox13rlbox_sandboxINS0_20rlbox_wasm2c_sandboxEE14Sandbox_StatusEEC2ES4_(%"struct.std::atomic"* nonnull dereferenceable(4) %this, i32 %__i) unnamed_addr #13 comdat align 2 {
entry:
  %this.addr = alloca %"struct.std::atomic"*, align 8
  %__i.addr = alloca i32, align 4
  store %"struct.std::atomic"* %this, %"struct.std::atomic"** %this.addr, align 8
  store i32 %__i, i32* %__i.addr, align 4
  %this1 = load %"struct.std::atomic"*, %"struct.std::atomic"** %this.addr, align 8
  %_M_i = getelementptr inbounds %"struct.std::atomic", %"struct.std::atomic"* %this1, i32 0, i32 0
  %0 = load i32, i32* %__i.addr, align 4
  store i32 %0, i32* %_M_i, align 4
  ret void
}

; Function Attrs: noinline nounwind optnone uwtable
define linkonce_odr dso_local void @_ZNSt5mutexC2Ev(%"class.std::mutex"* nonnull dereferenceable(40) %this) unnamed_addr #13 comdat align 2 {
entry:
  %this.addr = alloca %"class.std::mutex"*, align 8
  store %"class.std::mutex"* %this, %"class.std::mutex"** %this.addr, align 8
  %this1 = load %"class.std::mutex"*, %"class.std::mutex"** %this.addr, align 8
  %0 = bitcast %"class.std::mutex"* %this1 to %"class.std::__mutex_base"*
  call void @_ZNSt12__mutex_baseC2Ev(%"class.std::__mutex_base"* nonnull dereferenceable(40) %0) #3
  ret void
}

; Function Attrs: noinline nounwind optnone uwtable
define linkonce_odr dso_local void @_ZNSt3mapINSt7__cxx1112basic_stringIcSt11char_traitsIcESaIcEEEPvSt4lessIS5_ESaISt4pairIKS5_S6_EEED2Ev(%"class.std::map.8"* nonnull dereferenceable(48) %this) unnamed_addr #13 comdat align 2 {
entry:
  %this.addr = alloca %"class.std::map.8"*, align 8
  store %"class.std::map.8"* %this, %"class.std::map.8"** %this.addr, align 8
  %this1 = load %"class.std::map.8"*, %"class.std::map.8"** %this.addr, align 8
  %_M_t = getelementptr inbounds %"class.std::map.8", %"class.std::map.8"* %this1, i32 0, i32 0
  call void @_ZNSt8_Rb_treeINSt7__cxx1112basic_stringIcSt11char_traitsIcESaIcEEESt4pairIKS5_PvESt10_Select1stIS9_ESt4lessIS5_ESaIS9_EED2Ev(%"class.std::_Rb_tree.9"* nonnull dereferenceable(48) %_M_t) #3
  ret void
}

; Function Attrs: noinline nounwind optnone uwtable
define linkonce_odr dso_local void @_ZN5rlbox20rlbox_wasm2c_sandboxD2Ev(%"class.rlbox::rlbox_wasm2c_sandbox"* nonnull dereferenceable(2832) %this) unnamed_addr #13 comdat align 2 {
entry:
  %this.addr = alloca %"class.rlbox::rlbox_wasm2c_sandbox"*, align 8
  store %"class.rlbox::rlbox_wasm2c_sandbox"* %this, %"class.rlbox::rlbox_wasm2c_sandbox"** %this.addr, align 8
  %this1 = load %"class.rlbox::rlbox_wasm2c_sandbox"*, %"class.rlbox::rlbox_wasm2c_sandbox"** %this.addr, align 8
  %slot_assignments = getelementptr inbounds %"class.rlbox::rlbox_wasm2c_sandbox", %"class.rlbox::rlbox_wasm2c_sandbox"* %this1, i32 0, i32 14
  call void @_ZNSt3mapIjPKvSt4lessIjESaISt4pairIKjS1_EEED2Ev(%"class.std::map.0"* nonnull dereferenceable(48) %slot_assignments) #3
  %internal_callbacks = getelementptr inbounds %"class.rlbox::rlbox_wasm2c_sandbox", %"class.rlbox::rlbox_wasm2c_sandbox"* %this1, i32 0, i32 13
  call void @_ZNSt3mapIPKvjSt4lessIS1_ESaISt4pairIKS1_jEEED2Ev(%"class.std::map"* nonnull dereferenceable(48) %internal_callbacks) #3
  ret void
}

; Function Attrs: noinline nounwind optnone uwtable
define linkonce_odr dso_local void @_ZNSt3mapIPKvjSt4lessIS1_ESaISt4pairIKS1_jEEEC2Ev(%"class.std::map"* nonnull dereferenceable(48) %this) unnamed_addr #13 comdat align 2 {
entry:
  %this.addr = alloca %"class.std::map"*, align 8
  store %"class.std::map"* %this, %"class.std::map"** %this.addr, align 8
  %this1 = load %"class.std::map"*, %"class.std::map"** %this.addr, align 8
  %_M_t = getelementptr inbounds %"class.std::map", %"class.std::map"* %this1, i32 0, i32 0
  call void @_ZNSt8_Rb_treeIPKvSt4pairIKS1_jESt10_Select1stIS4_ESt4lessIS1_ESaIS4_EEC2Ev(%"class.std::_Rb_tree"* nonnull dereferenceable(48) %_M_t) #3
  ret void
}

; Function Attrs: noinline nounwind optnone uwtable
define linkonce_odr dso_local void @_ZNSt3mapIjPKvSt4lessIjESaISt4pairIKjS1_EEEC2Ev(%"class.std::map.0"* nonnull dereferenceable(48) %this) unnamed_addr #13 comdat align 2 {
entry:
  %this.addr = alloca %"class.std::map.0"*, align 8
  store %"class.std::map.0"* %this, %"class.std::map.0"** %this.addr, align 8
  %this1 = load %"class.std::map.0"*, %"class.std::map.0"** %this.addr, align 8
  %_M_t = getelementptr inbounds %"class.std::map.0", %"class.std::map.0"* %this1, i32 0, i32 0
  call void @_ZNSt8_Rb_treeIjSt4pairIKjPKvESt10_Select1stIS4_ESt4lessIjESaIS4_EEC2Ev(%"class.std::_Rb_tree.1"* nonnull dereferenceable(48) %_M_t) #3
  ret void
}

; Function Attrs: noinline nounwind optnone uwtable
define linkonce_odr dso_local void @_ZNSt8_Rb_treeIPKvSt4pairIKS1_jESt10_Select1stIS4_ESt4lessIS1_ESaIS4_EEC2Ev(%"class.std::_Rb_tree"* nonnull dereferenceable(48) %this) unnamed_addr #13 comdat align 2 {
entry:
  %this.addr = alloca %"class.std::_Rb_tree"*, align 8
  store %"class.std::_Rb_tree"* %this, %"class.std::_Rb_tree"** %this.addr, align 8
  %this1 = load %"class.std::_Rb_tree"*, %"class.std::_Rb_tree"** %this.addr, align 8
  %_M_impl = getelementptr inbounds %"class.std::_Rb_tree", %"class.std::_Rb_tree"* %this1, i32 0, i32 0
  call void @_ZNSt8_Rb_treeIPKvSt4pairIKS1_jESt10_Select1stIS4_ESt4lessIS1_ESaIS4_EE13_Rb_tree_implIS8_Lb1EEC2Ev(%"struct.std::_Rb_tree<const void *, std::pair<const void *const, unsigned int>, std::_Select1st<std::pair<const void *const, unsigned int>>, std::less<const void *>>::_Rb_tree_impl"* nonnull dereferenceable(48) %_M_impl) #3
  ret void
}

; Function Attrs: noinline nounwind optnone uwtable
define linkonce_odr dso_local void @_ZNSt8_Rb_treeIPKvSt4pairIKS1_jESt10_Select1stIS4_ESt4lessIS1_ESaIS4_EE13_Rb_tree_implIS8_Lb1EEC2Ev(%"struct.std::_Rb_tree<const void *, std::pair<const void *const, unsigned int>, std::_Select1st<std::pair<const void *const, unsigned int>>, std::less<const void *>>::_Rb_tree_impl"* nonnull dereferenceable(48) %this) unnamed_addr #13 comdat align 2 {
entry:
  %this.addr = alloca %"struct.std::_Rb_tree<const void *, std::pair<const void *const, unsigned int>, std::_Select1st<std::pair<const void *const, unsigned int>>, std::less<const void *>>::_Rb_tree_impl"*, align 8
  store %"struct.std::_Rb_tree<const void *, std::pair<const void *const, unsigned int>, std::_Select1st<std::pair<const void *const, unsigned int>>, std::less<const void *>>::_Rb_tree_impl"* %this, %"struct.std::_Rb_tree<const void *, std::pair<const void *const, unsigned int>, std::_Select1st<std::pair<const void *const, unsigned int>>, std::less<const void *>>::_Rb_tree_impl"** %this.addr, align 8
  %this1 = load %"struct.std::_Rb_tree<const void *, std::pair<const void *const, unsigned int>, std::_Select1st<std::pair<const void *const, unsigned int>>, std::less<const void *>>::_Rb_tree_impl"*, %"struct.std::_Rb_tree<const void *, std::pair<const void *const, unsigned int>, std::_Select1st<std::pair<const void *const, unsigned int>>, std::less<const void *>>::_Rb_tree_impl"** %this.addr, align 8
  %0 = bitcast %"struct.std::_Rb_tree<const void *, std::pair<const void *const, unsigned int>, std::_Select1st<std::pair<const void *const, unsigned int>>, std::less<const void *>>::_Rb_tree_impl"* %this1 to %"class.std::allocator"*
  call void @_ZNSaISt13_Rb_tree_nodeISt4pairIKPKvjEEEC2Ev(%"class.std::allocator"* nonnull dereferenceable(1) %0) #3
  %1 = bitcast %"struct.std::_Rb_tree<const void *, std::pair<const void *const, unsigned int>, std::_Select1st<std::pair<const void *const, unsigned int>>, std::less<const void *>>::_Rb_tree_impl"* %this1 to %"struct.std::_Rb_tree_key_compare"*
  call void @_ZNSt20_Rb_tree_key_compareISt4lessIPKvEEC2Ev(%"struct.std::_Rb_tree_key_compare"* nonnull dereferenceable(1) %1) #3
  %2 = bitcast %"struct.std::_Rb_tree<const void *, std::pair<const void *const, unsigned int>, std::_Select1st<std::pair<const void *const, unsigned int>>, std::less<const void *>>::_Rb_tree_impl"* %this1 to i8*
  %3 = getelementptr inbounds i8, i8* %2, i64 8
  %4 = bitcast i8* %3 to %"struct.std::_Rb_tree_header"*
  call void @_ZNSt15_Rb_tree_headerC2Ev(%"struct.std::_Rb_tree_header"* nonnull dereferenceable(40) %4) #3
  ret void
}

; Function Attrs: noinline nounwind optnone uwtable
define linkonce_odr dso_local void @_ZNSaISt13_Rb_tree_nodeISt4pairIKPKvjEEEC2Ev(%"class.std::allocator"* nonnull dereferenceable(1) %this) unnamed_addr #13 comdat align 2 {
entry:
  %this.addr = alloca %"class.std::allocator"*, align 8
  store %"class.std::allocator"* %this, %"class.std::allocator"** %this.addr, align 8
  %this1 = load %"class.std::allocator"*, %"class.std::allocator"** %this.addr, align 8
  %0 = bitcast %"class.std::allocator"* %this1 to %"class.__gnu_cxx::new_allocator"*
  call void @_ZN9__gnu_cxx13new_allocatorISt13_Rb_tree_nodeISt4pairIKPKvjEEEC2Ev(%"class.__gnu_cxx::new_allocator"* nonnull dereferenceable(1) %0) #3
  ret void
}

; Function Attrs: noinline nounwind optnone uwtable
define linkonce_odr dso_local void @_ZNSt20_Rb_tree_key_compareISt4lessIPKvEEC2Ev(%"struct.std::_Rb_tree_key_compare"* nonnull dereferenceable(1) %this) unnamed_addr #13 comdat align 2 {
entry:
  %this.addr = alloca %"struct.std::_Rb_tree_key_compare"*, align 8
  store %"struct.std::_Rb_tree_key_compare"* %this, %"struct.std::_Rb_tree_key_compare"** %this.addr, align 8
  %this1 = load %"struct.std::_Rb_tree_key_compare"*, %"struct.std::_Rb_tree_key_compare"** %this.addr, align 8
  %_M_key_compare = getelementptr inbounds %"struct.std::_Rb_tree_key_compare", %"struct.std::_Rb_tree_key_compare"* %this1, i32 0, i32 0
  ret void
}

; Function Attrs: noinline nounwind optnone uwtable
define linkonce_odr dso_local void @_ZNSt15_Rb_tree_headerC2Ev(%"struct.std::_Rb_tree_header"* nonnull dereferenceable(40) %this) unnamed_addr #13 comdat align 2 personality i8* bitcast (i32 (...)* @__gxx_personality_v0 to i8*) {
entry:
  %this.addr = alloca %"struct.std::_Rb_tree_header"*, align 8
  store %"struct.std::_Rb_tree_header"* %this, %"struct.std::_Rb_tree_header"** %this.addr, align 8
  %this1 = load %"struct.std::_Rb_tree_header"*, %"struct.std::_Rb_tree_header"** %this.addr, align 8
  %_M_header = getelementptr inbounds %"struct.std::_Rb_tree_header", %"struct.std::_Rb_tree_header"* %this1, i32 0, i32 0
  %_M_header2 = getelementptr inbounds %"struct.std::_Rb_tree_header", %"struct.std::_Rb_tree_header"* %this1, i32 0, i32 0
  %_M_color = getelementptr inbounds %"struct.std::_Rb_tree_node_base", %"struct.std::_Rb_tree_node_base"* %_M_header2, i32 0, i32 0
  store i32 0, i32* %_M_color, align 8
  invoke void @_ZNSt15_Rb_tree_header8_M_resetEv(%"struct.std::_Rb_tree_header"* nonnull dereferenceable(40) %this1)
          to label %invoke.cont unwind label %terminate.lpad

invoke.cont:                                      ; preds = %entry
  ret void

terminate.lpad:                                   ; preds = %entry
  %0 = landingpad { i8*, i32 }
          catch i8* null
  %1 = extractvalue { i8*, i32 } %0, 0
  call void @__clang_call_terminate(i8* %1) #24
  unreachable
}

; Function Attrs: noinline nounwind optnone uwtable
define linkonce_odr dso_local void @_ZN9__gnu_cxx13new_allocatorISt13_Rb_tree_nodeISt4pairIKPKvjEEEC2Ev(%"class.__gnu_cxx::new_allocator"* nonnull dereferenceable(1) %this) unnamed_addr #13 comdat align 2 {
entry:
  %this.addr = alloca %"class.__gnu_cxx::new_allocator"*, align 8
  store %"class.__gnu_cxx::new_allocator"* %this, %"class.__gnu_cxx::new_allocator"** %this.addr, align 8
  %this1 = load %"class.__gnu_cxx::new_allocator"*, %"class.__gnu_cxx::new_allocator"** %this.addr, align 8
  ret void
}

; Function Attrs: noinline nounwind optnone uwtable mustprogress
define linkonce_odr dso_local void @_ZNSt15_Rb_tree_header8_M_resetEv(%"struct.std::_Rb_tree_header"* nonnull dereferenceable(40) %this) #5 comdat align 2 {
entry:
  %this.addr = alloca %"struct.std::_Rb_tree_header"*, align 8
  store %"struct.std::_Rb_tree_header"* %this, %"struct.std::_Rb_tree_header"** %this.addr, align 8
  %this1 = load %"struct.std::_Rb_tree_header"*, %"struct.std::_Rb_tree_header"** %this.addr, align 8
  %_M_header = getelementptr inbounds %"struct.std::_Rb_tree_header", %"struct.std::_Rb_tree_header"* %this1, i32 0, i32 0
  %_M_parent = getelementptr inbounds %"struct.std::_Rb_tree_node_base", %"struct.std::_Rb_tree_node_base"* %_M_header, i32 0, i32 1
  store %"struct.std::_Rb_tree_node_base"* null, %"struct.std::_Rb_tree_node_base"** %_M_parent, align 8
  %_M_header2 = getelementptr inbounds %"struct.std::_Rb_tree_header", %"struct.std::_Rb_tree_header"* %this1, i32 0, i32 0
  %_M_header3 = getelementptr inbounds %"struct.std::_Rb_tree_header", %"struct.std::_Rb_tree_header"* %this1, i32 0, i32 0
  %_M_left = getelementptr inbounds %"struct.std::_Rb_tree_node_base", %"struct.std::_Rb_tree_node_base"* %_M_header3, i32 0, i32 2
  store %"struct.std::_Rb_tree_node_base"* %_M_header2, %"struct.std::_Rb_tree_node_base"** %_M_left, align 8
  %_M_header4 = getelementptr inbounds %"struct.std::_Rb_tree_header", %"struct.std::_Rb_tree_header"* %this1, i32 0, i32 0
  %_M_header5 = getelementptr inbounds %"struct.std::_Rb_tree_header", %"struct.std::_Rb_tree_header"* %this1, i32 0, i32 0
  %_M_right = getelementptr inbounds %"struct.std::_Rb_tree_node_base", %"struct.std::_Rb_tree_node_base"* %_M_header5, i32 0, i32 3
  store %"struct.std::_Rb_tree_node_base"* %_M_header4, %"struct.std::_Rb_tree_node_base"** %_M_right, align 8
  %_M_node_count = getelementptr inbounds %"struct.std::_Rb_tree_header", %"struct.std::_Rb_tree_header"* %this1, i32 0, i32 1
  store i64 0, i64* %_M_node_count, align 8
  ret void
}

; Function Attrs: noinline noreturn nounwind
define linkonce_odr hidden void @__clang_call_terminate(i8* %0) #15 comdat {
  %2 = call i8* @__cxa_begin_catch(i8* %0) #3
  call void @_ZSt9terminatev() #24
  unreachable
}

declare dso_local i8* @__cxa_begin_catch(i8*)

declare dso_local void @_ZSt9terminatev()

; Function Attrs: noinline nounwind optnone uwtable
define linkonce_odr dso_local void @_ZNSt8_Rb_treeIjSt4pairIKjPKvESt10_Select1stIS4_ESt4lessIjESaIS4_EEC2Ev(%"class.std::_Rb_tree.1"* nonnull dereferenceable(48) %this) unnamed_addr #13 comdat align 2 {
entry:
  %this.addr = alloca %"class.std::_Rb_tree.1"*, align 8
  store %"class.std::_Rb_tree.1"* %this, %"class.std::_Rb_tree.1"** %this.addr, align 8
  %this1 = load %"class.std::_Rb_tree.1"*, %"class.std::_Rb_tree.1"** %this.addr, align 8
  %_M_impl = getelementptr inbounds %"class.std::_Rb_tree.1", %"class.std::_Rb_tree.1"* %this1, i32 0, i32 0
  call void @_ZNSt8_Rb_treeIjSt4pairIKjPKvESt10_Select1stIS4_ESt4lessIjESaIS4_EE13_Rb_tree_implIS8_Lb1EEC2Ev(%"struct.std::_Rb_tree<unsigned int, std::pair<const unsigned int, const void *>, std::_Select1st<std::pair<const unsigned int, const void *>>, std::less<unsigned int>>::_Rb_tree_impl"* nonnull dereferenceable(48) %_M_impl) #3
  ret void
}

; Function Attrs: noinline nounwind optnone uwtable
define linkonce_odr dso_local void @_ZNSt8_Rb_treeIjSt4pairIKjPKvESt10_Select1stIS4_ESt4lessIjESaIS4_EE13_Rb_tree_implIS8_Lb1EEC2Ev(%"struct.std::_Rb_tree<unsigned int, std::pair<const unsigned int, const void *>, std::_Select1st<std::pair<const unsigned int, const void *>>, std::less<unsigned int>>::_Rb_tree_impl"* nonnull dereferenceable(48) %this) unnamed_addr #13 comdat align 2 {
entry:
  %this.addr = alloca %"struct.std::_Rb_tree<unsigned int, std::pair<const unsigned int, const void *>, std::_Select1st<std::pair<const unsigned int, const void *>>, std::less<unsigned int>>::_Rb_tree_impl"*, align 8
  store %"struct.std::_Rb_tree<unsigned int, std::pair<const unsigned int, const void *>, std::_Select1st<std::pair<const unsigned int, const void *>>, std::less<unsigned int>>::_Rb_tree_impl"* %this, %"struct.std::_Rb_tree<unsigned int, std::pair<const unsigned int, const void *>, std::_Select1st<std::pair<const unsigned int, const void *>>, std::less<unsigned int>>::_Rb_tree_impl"** %this.addr, align 8
  %this1 = load %"struct.std::_Rb_tree<unsigned int, std::pair<const unsigned int, const void *>, std::_Select1st<std::pair<const unsigned int, const void *>>, std::less<unsigned int>>::_Rb_tree_impl"*, %"struct.std::_Rb_tree<unsigned int, std::pair<const unsigned int, const void *>, std::_Select1st<std::pair<const unsigned int, const void *>>, std::less<unsigned int>>::_Rb_tree_impl"** %this.addr, align 8
  %0 = bitcast %"struct.std::_Rb_tree<unsigned int, std::pair<const unsigned int, const void *>, std::_Select1st<std::pair<const unsigned int, const void *>>, std::less<unsigned int>>::_Rb_tree_impl"* %this1 to %"class.std::allocator.2"*
  call void @_ZNSaISt13_Rb_tree_nodeISt4pairIKjPKvEEEC2Ev(%"class.std::allocator.2"* nonnull dereferenceable(1) %0) #3
  %1 = bitcast %"struct.std::_Rb_tree<unsigned int, std::pair<const unsigned int, const void *>, std::_Select1st<std::pair<const unsigned int, const void *>>, std::less<unsigned int>>::_Rb_tree_impl"* %this1 to %"struct.std::_Rb_tree_key_compare.5"*
  call void @_ZNSt20_Rb_tree_key_compareISt4lessIjEEC2Ev(%"struct.std::_Rb_tree_key_compare.5"* nonnull dereferenceable(1) %1) #3
  %2 = bitcast %"struct.std::_Rb_tree<unsigned int, std::pair<const unsigned int, const void *>, std::_Select1st<std::pair<const unsigned int, const void *>>, std::less<unsigned int>>::_Rb_tree_impl"* %this1 to i8*
  %3 = getelementptr inbounds i8, i8* %2, i64 8
  %4 = bitcast i8* %3 to %"struct.std::_Rb_tree_header"*
  call void @_ZNSt15_Rb_tree_headerC2Ev(%"struct.std::_Rb_tree_header"* nonnull dereferenceable(40) %4) #3
  ret void
}

; Function Attrs: noinline nounwind optnone uwtable
define linkonce_odr dso_local void @_ZNSaISt13_Rb_tree_nodeISt4pairIKjPKvEEEC2Ev(%"class.std::allocator.2"* nonnull dereferenceable(1) %this) unnamed_addr #13 comdat align 2 {
entry:
  %this.addr = alloca %"class.std::allocator.2"*, align 8
  store %"class.std::allocator.2"* %this, %"class.std::allocator.2"** %this.addr, align 8
  %this1 = load %"class.std::allocator.2"*, %"class.std::allocator.2"** %this.addr, align 8
  %0 = bitcast %"class.std::allocator.2"* %this1 to %"class.__gnu_cxx::new_allocator.3"*
  call void @_ZN9__gnu_cxx13new_allocatorISt13_Rb_tree_nodeISt4pairIKjPKvEEEC2Ev(%"class.__gnu_cxx::new_allocator.3"* nonnull dereferenceable(1) %0) #3
  ret void
}

; Function Attrs: noinline nounwind optnone uwtable
define linkonce_odr dso_local void @_ZNSt20_Rb_tree_key_compareISt4lessIjEEC2Ev(%"struct.std::_Rb_tree_key_compare.5"* nonnull dereferenceable(1) %this) unnamed_addr #13 comdat align 2 {
entry:
  %this.addr = alloca %"struct.std::_Rb_tree_key_compare.5"*, align 8
  store %"struct.std::_Rb_tree_key_compare.5"* %this, %"struct.std::_Rb_tree_key_compare.5"** %this.addr, align 8
  %this1 = load %"struct.std::_Rb_tree_key_compare.5"*, %"struct.std::_Rb_tree_key_compare.5"** %this.addr, align 8
  %_M_key_compare = getelementptr inbounds %"struct.std::_Rb_tree_key_compare.5", %"struct.std::_Rb_tree_key_compare.5"* %this1, i32 0, i32 0
  ret void
}

; Function Attrs: noinline nounwind optnone uwtable
define linkonce_odr dso_local void @_ZN9__gnu_cxx13new_allocatorISt13_Rb_tree_nodeISt4pairIKjPKvEEEC2Ev(%"class.__gnu_cxx::new_allocator.3"* nonnull dereferenceable(1) %this) unnamed_addr #13 comdat align 2 {
entry:
  %this.addr = alloca %"class.__gnu_cxx::new_allocator.3"*, align 8
  store %"class.__gnu_cxx::new_allocator.3"* %this, %"class.__gnu_cxx::new_allocator.3"** %this.addr, align 8
  %this1 = load %"class.__gnu_cxx::new_allocator.3"*, %"class.__gnu_cxx::new_allocator.3"** %this.addr, align 8
  ret void
}

; Function Attrs: noinline nounwind optnone uwtable
define linkonce_odr dso_local void @_ZNSt22__shared_mutex_pthreadC2Ev(%"class.std::__shared_mutex_pthread"* nonnull dereferenceable(56) %this) unnamed_addr #13 comdat align 2 {
entry:
  %this.addr = alloca %"class.std::__shared_mutex_pthread"*, align 8
  store %"class.std::__shared_mutex_pthread"* %this, %"class.std::__shared_mutex_pthread"** %this.addr, align 8
  %this1 = load %"class.std::__shared_mutex_pthread"*, %"class.std::__shared_mutex_pthread"** %this.addr, align 8
  %_M_rwlock = getelementptr inbounds %"class.std::__shared_mutex_pthread", %"class.std::__shared_mutex_pthread"* %this1, i32 0, i32 0
  %__data = bitcast %union.pthread_rwlock_t* %_M_rwlock to %struct.__pthread_rwlock_arch_t*
  %0 = bitcast %struct.__pthread_rwlock_arch_t* %__data to i8*
  call void @llvm.memset.p0i8.i64(i8* align 8 %0, i8 0, i64 56, i1 false)
  %__pad1 = getelementptr inbounds %struct.__pthread_rwlock_arch_t, %struct.__pthread_rwlock_arch_t* %__data, i32 0, i32 9
  %arrayinit.begin = getelementptr inbounds [7 x i8], [7 x i8]* %__pad1, i64 0, i64 0
  %arrayinit.element = getelementptr inbounds i8, i8* %arrayinit.begin, i64 1
  %arrayinit.element2 = getelementptr inbounds i8, i8* %arrayinit.element, i64 1
  %arrayinit.element3 = getelementptr inbounds i8, i8* %arrayinit.element2, i64 1
  %arrayinit.element4 = getelementptr inbounds i8, i8* %arrayinit.element3, i64 1
  %arrayinit.element5 = getelementptr inbounds i8, i8* %arrayinit.element4, i64 1
  %arrayinit.element6 = getelementptr inbounds i8, i8* %arrayinit.element5, i64 1
  %__flags = getelementptr inbounds %struct.__pthread_rwlock_arch_t, %struct.__pthread_rwlock_arch_t* %__data, i32 0, i32 11
  store i32 0, i32* %__flags, align 8
  ret void
}

; Function Attrs: argmemonly nofree nosync nounwind willreturn writeonly
declare void @llvm.memset.p0i8.i64(i8* nocapture writeonly, i8, i64, i1 immarg) #16

; Function Attrs: noinline nounwind optnone uwtable
define linkonce_odr dso_local void @_ZNSt8_Rb_treeINSt7__cxx1112basic_stringIcSt11char_traitsIcESaIcEEESt4pairIKS5_PvESt10_Select1stIS9_ESt4lessIS5_ESaIS9_EEC2Ev(%"class.std::_Rb_tree.9"* nonnull dereferenceable(48) %this) unnamed_addr #13 comdat align 2 {
entry:
  %this.addr = alloca %"class.std::_Rb_tree.9"*, align 8
  store %"class.std::_Rb_tree.9"* %this, %"class.std::_Rb_tree.9"** %this.addr, align 8
  %this1 = load %"class.std::_Rb_tree.9"*, %"class.std::_Rb_tree.9"** %this.addr, align 8
  %_M_impl = getelementptr inbounds %"class.std::_Rb_tree.9", %"class.std::_Rb_tree.9"* %this1, i32 0, i32 0
  call void @_ZNSt8_Rb_treeINSt7__cxx1112basic_stringIcSt11char_traitsIcESaIcEEESt4pairIKS5_PvESt10_Select1stIS9_ESt4lessIS5_ESaIS9_EE13_Rb_tree_implISD_Lb1EEC2Ev(%"struct.std::_Rb_tree<std::__cxx11::basic_string<char>, std::pair<const std::__cxx11::basic_string<char>, void *>, std::_Select1st<std::pair<const std::__cxx11::basic_string<char>, void *>>, std::less<std::__cxx11::basic_string<char>>>::_Rb_tree_impl"* nonnull dereferenceable(48) %_M_impl) #3
  ret void
}

; Function Attrs: noinline nounwind optnone uwtable
define linkonce_odr dso_local void @_ZNSt8_Rb_treeINSt7__cxx1112basic_stringIcSt11char_traitsIcESaIcEEESt4pairIKS5_PvESt10_Select1stIS9_ESt4lessIS5_ESaIS9_EE13_Rb_tree_implISD_Lb1EEC2Ev(%"struct.std::_Rb_tree<std::__cxx11::basic_string<char>, std::pair<const std::__cxx11::basic_string<char>, void *>, std::_Select1st<std::pair<const std::__cxx11::basic_string<char>, void *>>, std::less<std::__cxx11::basic_string<char>>>::_Rb_tree_impl"* nonnull dereferenceable(48) %this) unnamed_addr #13 comdat align 2 {
entry:
  %this.addr = alloca %"struct.std::_Rb_tree<std::__cxx11::basic_string<char>, std::pair<const std::__cxx11::basic_string<char>, void *>, std::_Select1st<std::pair<const std::__cxx11::basic_string<char>, void *>>, std::less<std::__cxx11::basic_string<char>>>::_Rb_tree_impl"*, align 8
  store %"struct.std::_Rb_tree<std::__cxx11::basic_string<char>, std::pair<const std::__cxx11::basic_string<char>, void *>, std::_Select1st<std::pair<const std::__cxx11::basic_string<char>, void *>>, std::less<std::__cxx11::basic_string<char>>>::_Rb_tree_impl"* %this, %"struct.std::_Rb_tree<std::__cxx11::basic_string<char>, std::pair<const std::__cxx11::basic_string<char>, void *>, std::_Select1st<std::pair<const std::__cxx11::basic_string<char>, void *>>, std::less<std::__cxx11::basic_string<char>>>::_Rb_tree_impl"** %this.addr, align 8
  %this1 = load %"struct.std::_Rb_tree<std::__cxx11::basic_string<char>, std::pair<const std::__cxx11::basic_string<char>, void *>, std::_Select1st<std::pair<const std::__cxx11::basic_string<char>, void *>>, std::less<std::__cxx11::basic_string<char>>>::_Rb_tree_impl"*, %"struct.std::_Rb_tree<std::__cxx11::basic_string<char>, std::pair<const std::__cxx11::basic_string<char>, void *>, std::_Select1st<std::pair<const std::__cxx11::basic_string<char>, void *>>, std::less<std::__cxx11::basic_string<char>>>::_Rb_tree_impl"** %this.addr, align 8
  %0 = bitcast %"struct.std::_Rb_tree<std::__cxx11::basic_string<char>, std::pair<const std::__cxx11::basic_string<char>, void *>, std::_Select1st<std::pair<const std::__cxx11::basic_string<char>, void *>>, std::less<std::__cxx11::basic_string<char>>>::_Rb_tree_impl"* %this1 to %"class.std::allocator.10"*
  call void @_ZNSaISt13_Rb_tree_nodeISt4pairIKNSt7__cxx1112basic_stringIcSt11char_traitsIcESaIcEEEPvEEEC2Ev(%"class.std::allocator.10"* nonnull dereferenceable(1) %0) #3
  %1 = bitcast %"struct.std::_Rb_tree<std::__cxx11::basic_string<char>, std::pair<const std::__cxx11::basic_string<char>, void *>, std::_Select1st<std::pair<const std::__cxx11::basic_string<char>, void *>>, std::less<std::__cxx11::basic_string<char>>>::_Rb_tree_impl"* %this1 to %"struct.std::_Rb_tree_key_compare.13"*
  call void @_ZNSt20_Rb_tree_key_compareISt4lessINSt7__cxx1112basic_stringIcSt11char_traitsIcESaIcEEEEEC2Ev(%"struct.std::_Rb_tree_key_compare.13"* nonnull dereferenceable(1) %1) #3
  %2 = bitcast %"struct.std::_Rb_tree<std::__cxx11::basic_string<char>, std::pair<const std::__cxx11::basic_string<char>, void *>, std::_Select1st<std::pair<const std::__cxx11::basic_string<char>, void *>>, std::less<std::__cxx11::basic_string<char>>>::_Rb_tree_impl"* %this1 to i8*
  %3 = getelementptr inbounds i8, i8* %2, i64 8
  %4 = bitcast i8* %3 to %"struct.std::_Rb_tree_header"*
  call void @_ZNSt15_Rb_tree_headerC2Ev(%"struct.std::_Rb_tree_header"* nonnull dereferenceable(40) %4) #3
  ret void
}

; Function Attrs: noinline nounwind optnone uwtable
define linkonce_odr dso_local void @_ZNSaISt13_Rb_tree_nodeISt4pairIKNSt7__cxx1112basic_stringIcSt11char_traitsIcESaIcEEEPvEEEC2Ev(%"class.std::allocator.10"* nonnull dereferenceable(1) %this) unnamed_addr #13 comdat align 2 {
entry:
  %this.addr = alloca %"class.std::allocator.10"*, align 8
  store %"class.std::allocator.10"* %this, %"class.std::allocator.10"** %this.addr, align 8
  %this1 = load %"class.std::allocator.10"*, %"class.std::allocator.10"** %this.addr, align 8
  %0 = bitcast %"class.std::allocator.10"* %this1 to %"class.__gnu_cxx::new_allocator.11"*
  call void @_ZN9__gnu_cxx13new_allocatorISt13_Rb_tree_nodeISt4pairIKNSt7__cxx1112basic_stringIcSt11char_traitsIcESaIcEEEPvEEEC2Ev(%"class.__gnu_cxx::new_allocator.11"* nonnull dereferenceable(1) %0) #3
  ret void
}

; Function Attrs: noinline nounwind optnone uwtable
define linkonce_odr dso_local void @_ZNSt20_Rb_tree_key_compareISt4lessINSt7__cxx1112basic_stringIcSt11char_traitsIcESaIcEEEEEC2Ev(%"struct.std::_Rb_tree_key_compare.13"* nonnull dereferenceable(1) %this) unnamed_addr #13 comdat align 2 {
entry:
  %this.addr = alloca %"struct.std::_Rb_tree_key_compare.13"*, align 8
  store %"struct.std::_Rb_tree_key_compare.13"* %this, %"struct.std::_Rb_tree_key_compare.13"** %this.addr, align 8
  %this1 = load %"struct.std::_Rb_tree_key_compare.13"*, %"struct.std::_Rb_tree_key_compare.13"** %this.addr, align 8
  %_M_key_compare = getelementptr inbounds %"struct.std::_Rb_tree_key_compare.13", %"struct.std::_Rb_tree_key_compare.13"* %this1, i32 0, i32 0
  ret void
}

; Function Attrs: noinline nounwind optnone uwtable
define linkonce_odr dso_local void @_ZN9__gnu_cxx13new_allocatorISt13_Rb_tree_nodeISt4pairIKNSt7__cxx1112basic_stringIcSt11char_traitsIcESaIcEEEPvEEEC2Ev(%"class.__gnu_cxx::new_allocator.11"* nonnull dereferenceable(1) %this) unnamed_addr #13 comdat align 2 {
entry:
  %this.addr = alloca %"class.__gnu_cxx::new_allocator.11"*, align 8
  store %"class.__gnu_cxx::new_allocator.11"* %this, %"class.__gnu_cxx::new_allocator.11"** %this.addr, align 8
  %this1 = load %"class.__gnu_cxx::new_allocator.11"*, %"class.__gnu_cxx::new_allocator.11"** %this.addr, align 8
  ret void
}

; Function Attrs: noinline nounwind optnone uwtable
define linkonce_odr dso_local void @_ZNSt3mapIjPvSt4lessIjESaISt4pairIKjS0_EEEC2Ev(%"class.std::map.16"* nonnull dereferenceable(48) %this) unnamed_addr #13 comdat align 2 {
entry:
  %this.addr = alloca %"class.std::map.16"*, align 8
  store %"class.std::map.16"* %this, %"class.std::map.16"** %this.addr, align 8
  %this1 = load %"class.std::map.16"*, %"class.std::map.16"** %this.addr, align 8
  %_M_t = getelementptr inbounds %"class.std::map.16", %"class.std::map.16"* %this1, i32 0, i32 0
  call void @_ZNSt8_Rb_treeIjSt4pairIKjPvESt10_Select1stIS3_ESt4lessIjESaIS3_EEC2Ev(%"class.std::_Rb_tree.17"* nonnull dereferenceable(48) %_M_t) #3
  ret void
}

; Function Attrs: noinline optnone uwtable mustprogress
define linkonce_odr dso_local nonnull align 8 dereferenceable(8) i8** @_ZNSt3mapIjPvSt4lessIjESaISt4pairIKjS0_EEEixEOj(%"class.std::map.16"* nonnull dereferenceable(48) %this, i32* nonnull align 4 dereferenceable(4) %__k) #4 comdat align 2 {
entry:
  %this.addr = alloca %"class.std::map.16"*, align 8
  %__k.addr = alloca i32*, align 8
  %__i = alloca %"struct.std::_Rb_tree_iterator", align 8
  %ref.tmp = alloca %"struct.std::_Rb_tree_iterator", align 8
  %ref.tmp5 = alloca %"struct.std::less.6", align 1
  %undef.agg.tmp = alloca %"struct.std::less.6", align 1
  %ref.tmp8 = alloca %"struct.std::_Rb_tree_iterator", align 8
  %agg.tmp = alloca %"struct.std::_Rb_tree_const_iterator", align 8
  %ref.tmp9 = alloca %"class.std::tuple", align 8
  %ref.tmp11 = alloca %"class.std::tuple.36", align 1
  store %"class.std::map.16"* %this, %"class.std::map.16"** %this.addr, align 8
  store i32* %__k, i32** %__k.addr, align 8
  %this1 = load %"class.std::map.16"*, %"class.std::map.16"** %this.addr, align 8
  %0 = load i32*, i32** %__k.addr, align 8
  %call = call %"struct.std::_Rb_tree_node_base"* @_ZNSt3mapIjPvSt4lessIjESaISt4pairIKjS0_EEE11lower_boundERS4_(%"class.std::map.16"* nonnull dereferenceable(48) %this1, i32* nonnull align 4 dereferenceable(4) %0)
  %coerce.dive = getelementptr inbounds %"struct.std::_Rb_tree_iterator", %"struct.std::_Rb_tree_iterator"* %__i, i32 0, i32 0
  store %"struct.std::_Rb_tree_node_base"* %call, %"struct.std::_Rb_tree_node_base"** %coerce.dive, align 8
  %call2 = call %"struct.std::_Rb_tree_node_base"* @_ZNSt3mapIjPvSt4lessIjESaISt4pairIKjS0_EEE3endEv(%"class.std::map.16"* nonnull dereferenceable(48) %this1) #3
  %coerce.dive3 = getelementptr inbounds %"struct.std::_Rb_tree_iterator", %"struct.std::_Rb_tree_iterator"* %ref.tmp, i32 0, i32 0
  store %"struct.std::_Rb_tree_node_base"* %call2, %"struct.std::_Rb_tree_node_base"** %coerce.dive3, align 8
  %call4 = call zeroext i1 @_ZSteqRKSt17_Rb_tree_iteratorISt4pairIKjPvEES6_(%"struct.std::_Rb_tree_iterator"* nonnull align 8 dereferenceable(8) %__i, %"struct.std::_Rb_tree_iterator"* nonnull align 8 dereferenceable(8) %ref.tmp) #3
  br i1 %call4, label %lor.end, label %lor.rhs

lor.rhs:                                          ; preds = %entry
  call void @_ZNKSt3mapIjPvSt4lessIjESaISt4pairIKjS0_EEE8key_compEv(%"class.std::map.16"* nonnull dereferenceable(48) %this1)
  %1 = load i32*, i32** %__k.addr, align 8
  %call6 = call nonnull align 8 dereferenceable(16) %"struct.std::pair"* @_ZNKSt17_Rb_tree_iteratorISt4pairIKjPvEEdeEv(%"struct.std::_Rb_tree_iterator"* nonnull dereferenceable(8) %__i) #3
  %first = getelementptr inbounds %"struct.std::pair", %"struct.std::pair"* %call6, i32 0, i32 0
  %call7 = call zeroext i1 @_ZNKSt4lessIjEclERKjS2_(%"struct.std::less.6"* nonnull dereferenceable(1) %ref.tmp5, i32* nonnull align 4 dereferenceable(4) %1, i32* nonnull align 4 dereferenceable(4) %first)
  br label %lor.end

lor.end:                                          ; preds = %lor.rhs, %entry
  %2 = phi i1 [ true, %entry ], [ %call7, %lor.rhs ]
  br i1 %2, label %if.then, label %if.end

if.then:                                          ; preds = %lor.end
  %_M_t = getelementptr inbounds %"class.std::map.16", %"class.std::map.16"* %this1, i32 0, i32 0
  call void @_ZNSt23_Rb_tree_const_iteratorISt4pairIKjPvEEC2ERKSt17_Rb_tree_iteratorIS3_E(%"struct.std::_Rb_tree_const_iterator"* nonnull dereferenceable(8) %agg.tmp, %"struct.std::_Rb_tree_iterator"* nonnull align 8 dereferenceable(8) %__i) #3
  %3 = load i32*, i32** %__k.addr, align 8
  %call10 = call nonnull align 4 dereferenceable(4) i32* @_ZSt4moveIRjEONSt16remove_referenceIT_E4typeEOS2_(i32* nonnull align 4 dereferenceable(4) %3) #3
  call void @_ZSt16forward_as_tupleIJjEESt5tupleIJDpOT_EES3_(%"class.std::tuple"*  align 8 %ref.tmp9, i32* nonnull align 4 dereferenceable(4) %call10) #3
  %coerce.dive12 = getelementptr inbounds %"struct.std::_Rb_tree_const_iterator", %"struct.std::_Rb_tree_const_iterator"* %agg.tmp, i32 0, i32 0
  %4 = load %"struct.std::_Rb_tree_node_base"*, %"struct.std::_Rb_tree_node_base"** %coerce.dive12, align 8
  %call13 = call %"struct.std::_Rb_tree_node_base"* @_ZNSt8_Rb_treeIjSt4pairIKjPvESt10_Select1stIS3_ESt4lessIjESaIS3_EE22_M_emplace_hint_uniqueIJRKSt21piecewise_construct_tSt5tupleIJOjEESE_IJEEEEESt17_Rb_tree_iteratorIS3_ESt23_Rb_tree_const_iteratorIS3_EDpOT_(%"class.std::_Rb_tree.17"* nonnull dereferenceable(48) %_M_t, %"struct.std::_Rb_tree_node_base"* %4, %"struct.std::piecewise_construct_t"* nonnull align 1 dereferenceable(1) @_ZSt19piecewise_construct, %"class.std::tuple"* nonnull align 8 dereferenceable(8) %ref.tmp9, %"class.std::tuple.36"* nonnull align 1 dereferenceable(1) %ref.tmp11)
  %coerce.dive14 = getelementptr inbounds %"struct.std::_Rb_tree_iterator", %"struct.std::_Rb_tree_iterator"* %ref.tmp8, i32 0, i32 0
  store %"struct.std::_Rb_tree_node_base"* %call13, %"struct.std::_Rb_tree_node_base"** %coerce.dive14, align 8
  %5 = bitcast %"struct.std::_Rb_tree_iterator"* %__i to i8*
  %6 = bitcast %"struct.std::_Rb_tree_iterator"* %ref.tmp8 to i8*
  call void @llvm.memcpy.p0i8.p0i8.i64(i8* align 8 %5, i8* align 8 %6, i64 8, i1 false)
  br label %if.end

if.end:                                           ; preds = %if.then, %lor.end
  %call15 = call nonnull align 8 dereferenceable(16) %"struct.std::pair"* @_ZNKSt17_Rb_tree_iteratorISt4pairIKjPvEEdeEv(%"struct.std::_Rb_tree_iterator"* nonnull dereferenceable(8) %__i) #3
  %second = getelementptr inbounds %"struct.std::pair", %"struct.std::pair"* %call15, i32 0, i32 1
  ret i8** %second
}

; Function Attrs: noinline nounwind optnone uwtable
define linkonce_odr dso_local void @_ZNSt3mapIjPvSt4lessIjESaISt4pairIKjS0_EEED2Ev(%"class.std::map.16"* nonnull dereferenceable(48) %this) unnamed_addr #13 comdat align 2 {
entry:
  %this.addr = alloca %"class.std::map.16"*, align 8
  store %"class.std::map.16"* %this, %"class.std::map.16"** %this.addr, align 8
  %this1 = load %"class.std::map.16"*, %"class.std::map.16"** %this.addr, align 8
  %_M_t = getelementptr inbounds %"class.std::map.16", %"class.std::map.16"* %this1, i32 0, i32 0
  call void @_ZNSt8_Rb_treeIjSt4pairIKjPvESt10_Select1stIS3_ESt4lessIjESaIS3_EED2Ev(%"class.std::_Rb_tree.17"* nonnull dereferenceable(48) %_M_t) #3
  ret void
}

; Function Attrs: noinline nounwind optnone uwtable
define linkonce_odr dso_local void @_ZNSt8_Rb_treeIjSt4pairIKjPvESt10_Select1stIS3_ESt4lessIjESaIS3_EEC2Ev(%"class.std::_Rb_tree.17"* nonnull dereferenceable(48) %this) unnamed_addr #13 comdat align 2 {
entry:
  %this.addr = alloca %"class.std::_Rb_tree.17"*, align 8
  store %"class.std::_Rb_tree.17"* %this, %"class.std::_Rb_tree.17"** %this.addr, align 8
  %this1 = load %"class.std::_Rb_tree.17"*, %"class.std::_Rb_tree.17"** %this.addr, align 8
  %_M_impl = getelementptr inbounds %"class.std::_Rb_tree.17", %"class.std::_Rb_tree.17"* %this1, i32 0, i32 0
  call void @_ZNSt8_Rb_treeIjSt4pairIKjPvESt10_Select1stIS3_ESt4lessIjESaIS3_EE13_Rb_tree_implIS7_Lb1EEC2Ev(%"struct.std::_Rb_tree<unsigned int, std::pair<const unsigned int, void *>, std::_Select1st<std::pair<const unsigned int, void *>>, std::less<unsigned int>>::_Rb_tree_impl"* nonnull dereferenceable(48) %_M_impl) #3
  ret void
}

; Function Attrs: noinline nounwind optnone uwtable
define linkonce_odr dso_local void @_ZNSt8_Rb_treeIjSt4pairIKjPvESt10_Select1stIS3_ESt4lessIjESaIS3_EE13_Rb_tree_implIS7_Lb1EEC2Ev(%"struct.std::_Rb_tree<unsigned int, std::pair<const unsigned int, void *>, std::_Select1st<std::pair<const unsigned int, void *>>, std::less<unsigned int>>::_Rb_tree_impl"* nonnull dereferenceable(48) %this) unnamed_addr #13 comdat align 2 {
entry:
  %this.addr = alloca %"struct.std::_Rb_tree<unsigned int, std::pair<const unsigned int, void *>, std::_Select1st<std::pair<const unsigned int, void *>>, std::less<unsigned int>>::_Rb_tree_impl"*, align 8
  store %"struct.std::_Rb_tree<unsigned int, std::pair<const unsigned int, void *>, std::_Select1st<std::pair<const unsigned int, void *>>, std::less<unsigned int>>::_Rb_tree_impl"* %this, %"struct.std::_Rb_tree<unsigned int, std::pair<const unsigned int, void *>, std::_Select1st<std::pair<const unsigned int, void *>>, std::less<unsigned int>>::_Rb_tree_impl"** %this.addr, align 8
  %this1 = load %"struct.std::_Rb_tree<unsigned int, std::pair<const unsigned int, void *>, std::_Select1st<std::pair<const unsigned int, void *>>, std::less<unsigned int>>::_Rb_tree_impl"*, %"struct.std::_Rb_tree<unsigned int, std::pair<const unsigned int, void *>, std::_Select1st<std::pair<const unsigned int, void *>>, std::less<unsigned int>>::_Rb_tree_impl"** %this.addr, align 8
  %0 = bitcast %"struct.std::_Rb_tree<unsigned int, std::pair<const unsigned int, void *>, std::_Select1st<std::pair<const unsigned int, void *>>, std::less<unsigned int>>::_Rb_tree_impl"* %this1 to %"class.std::allocator.18"*
  call void @_ZNSaISt13_Rb_tree_nodeISt4pairIKjPvEEEC2Ev(%"class.std::allocator.18"* nonnull dereferenceable(1) %0) #3
  %1 = bitcast %"struct.std::_Rb_tree<unsigned int, std::pair<const unsigned int, void *>, std::_Select1st<std::pair<const unsigned int, void *>>, std::less<unsigned int>>::_Rb_tree_impl"* %this1 to %"struct.std::_Rb_tree_key_compare.5"*
  call void @_ZNSt20_Rb_tree_key_compareISt4lessIjEEC2Ev(%"struct.std::_Rb_tree_key_compare.5"* nonnull dereferenceable(1) %1) #3
  %2 = bitcast %"struct.std::_Rb_tree<unsigned int, std::pair<const unsigned int, void *>, std::_Select1st<std::pair<const unsigned int, void *>>, std::less<unsigned int>>::_Rb_tree_impl"* %this1 to i8*
  %3 = getelementptr inbounds i8, i8* %2, i64 8
  %4 = bitcast i8* %3 to %"struct.std::_Rb_tree_header"*
  call void @_ZNSt15_Rb_tree_headerC2Ev(%"struct.std::_Rb_tree_header"* nonnull dereferenceable(40) %4) #3
  ret void
}

; Function Attrs: noinline nounwind optnone uwtable
define linkonce_odr dso_local void @_ZNSaISt13_Rb_tree_nodeISt4pairIKjPvEEEC2Ev(%"class.std::allocator.18"* nonnull dereferenceable(1) %this) unnamed_addr #13 comdat align 2 {
entry:
  %this.addr = alloca %"class.std::allocator.18"*, align 8
  store %"class.std::allocator.18"* %this, %"class.std::allocator.18"** %this.addr, align 8
  %this1 = load %"class.std::allocator.18"*, %"class.std::allocator.18"** %this.addr, align 8
  %0 = bitcast %"class.std::allocator.18"* %this1 to %"class.__gnu_cxx::new_allocator.19"*
  call void @_ZN9__gnu_cxx13new_allocatorISt13_Rb_tree_nodeISt4pairIKjPvEEEC2Ev(%"class.__gnu_cxx::new_allocator.19"* nonnull dereferenceable(1) %0) #3
  ret void
}

; Function Attrs: noinline nounwind optnone uwtable
define linkonce_odr dso_local void @_ZN9__gnu_cxx13new_allocatorISt13_Rb_tree_nodeISt4pairIKjPvEEEC2Ev(%"class.__gnu_cxx::new_allocator.19"* nonnull dereferenceable(1) %this) unnamed_addr #13 comdat align 2 {
entry:
  %this.addr = alloca %"class.__gnu_cxx::new_allocator.19"*, align 8
  store %"class.__gnu_cxx::new_allocator.19"* %this, %"class.__gnu_cxx::new_allocator.19"** %this.addr, align 8
  %this1 = load %"class.__gnu_cxx::new_allocator.19"*, %"class.__gnu_cxx::new_allocator.19"** %this.addr, align 8
  ret void
}

; Function Attrs: noinline optnone uwtable mustprogress
define linkonce_odr dso_local %"struct.std::_Rb_tree_node_base"* @_ZNSt3mapIjPvSt4lessIjESaISt4pairIKjS0_EEE11lower_boundERS4_(%"class.std::map.16"* nonnull dereferenceable(48) %this, i32* nonnull align 4 dereferenceable(4) %__x) #4 comdat align 2 {
entry:
  %retval = alloca %"struct.std::_Rb_tree_iterator", align 8
  %this.addr = alloca %"class.std::map.16"*, align 8
  %__x.addr = alloca i32*, align 8
  store %"class.std::map.16"* %this, %"class.std::map.16"** %this.addr, align 8
  store i32* %__x, i32** %__x.addr, align 8
  %this1 = load %"class.std::map.16"*, %"class.std::map.16"** %this.addr, align 8
  %_M_t = getelementptr inbounds %"class.std::map.16", %"class.std::map.16"* %this1, i32 0, i32 0
  %0 = load i32*, i32** %__x.addr, align 8
  %call = call %"struct.std::_Rb_tree_node_base"* @_ZNSt8_Rb_treeIjSt4pairIKjPvESt10_Select1stIS3_ESt4lessIjESaIS3_EE11lower_boundERS1_(%"class.std::_Rb_tree.17"* nonnull dereferenceable(48) %_M_t, i32* nonnull align 4 dereferenceable(4) %0)
  %coerce.dive = getelementptr inbounds %"struct.std::_Rb_tree_iterator", %"struct.std::_Rb_tree_iterator"* %retval, i32 0, i32 0
  store %"struct.std::_Rb_tree_node_base"* %call, %"struct.std::_Rb_tree_node_base"** %coerce.dive, align 8
  %coerce.dive2 = getelementptr inbounds %"struct.std::_Rb_tree_iterator", %"struct.std::_Rb_tree_iterator"* %retval, i32 0, i32 0
  %1 = load %"struct.std::_Rb_tree_node_base"*, %"struct.std::_Rb_tree_node_base"** %coerce.dive2, align 8
  ret %"struct.std::_Rb_tree_node_base"* %1
}

; Function Attrs: noinline nounwind optnone uwtable mustprogress
define linkonce_odr dso_local zeroext i1 @_ZSteqRKSt17_Rb_tree_iteratorISt4pairIKjPvEES6_(%"struct.std::_Rb_tree_iterator"* nonnull align 8 dereferenceable(8) %__x, %"struct.std::_Rb_tree_iterator"* nonnull align 8 dereferenceable(8) %__y) #5 comdat {
entry:
  %__x.addr = alloca %"struct.std::_Rb_tree_iterator"*, align 8
  %__y.addr = alloca %"struct.std::_Rb_tree_iterator"*, align 8
  store %"struct.std::_Rb_tree_iterator"* %__x, %"struct.std::_Rb_tree_iterator"** %__x.addr, align 8
  store %"struct.std::_Rb_tree_iterator"* %__y, %"struct.std::_Rb_tree_iterator"** %__y.addr, align 8
  %0 = load %"struct.std::_Rb_tree_iterator"*, %"struct.std::_Rb_tree_iterator"** %__x.addr, align 8
  %_M_node = getelementptr inbounds %"struct.std::_Rb_tree_iterator", %"struct.std::_Rb_tree_iterator"* %0, i32 0, i32 0
  %1 = load %"struct.std::_Rb_tree_node_base"*, %"struct.std::_Rb_tree_node_base"** %_M_node, align 8
  %2 = load %"struct.std::_Rb_tree_iterator"*, %"struct.std::_Rb_tree_iterator"** %__y.addr, align 8
  %_M_node1 = getelementptr inbounds %"struct.std::_Rb_tree_iterator", %"struct.std::_Rb_tree_iterator"* %2, i32 0, i32 0
  %3 = load %"struct.std::_Rb_tree_node_base"*, %"struct.std::_Rb_tree_node_base"** %_M_node1, align 8
  %cmp = icmp eq %"struct.std::_Rb_tree_node_base"* %1, %3
  ret i1 %cmp
}

; Function Attrs: noinline nounwind optnone uwtable mustprogress
define linkonce_odr dso_local %"struct.std::_Rb_tree_node_base"* @_ZNSt3mapIjPvSt4lessIjESaISt4pairIKjS0_EEE3endEv(%"class.std::map.16"* nonnull dereferenceable(48) %this) #5 comdat align 2 {
entry:
  %retval = alloca %"struct.std::_Rb_tree_iterator", align 8
  %this.addr = alloca %"class.std::map.16"*, align 8
  store %"class.std::map.16"* %this, %"class.std::map.16"** %this.addr, align 8
  %this1 = load %"class.std::map.16"*, %"class.std::map.16"** %this.addr, align 8
  %_M_t = getelementptr inbounds %"class.std::map.16", %"class.std::map.16"* %this1, i32 0, i32 0
  %call = call %"struct.std::_Rb_tree_node_base"* @_ZNSt8_Rb_treeIjSt4pairIKjPvESt10_Select1stIS3_ESt4lessIjESaIS3_EE3endEv(%"class.std::_Rb_tree.17"* nonnull dereferenceable(48) %_M_t) #3
  %coerce.dive = getelementptr inbounds %"struct.std::_Rb_tree_iterator", %"struct.std::_Rb_tree_iterator"* %retval, i32 0, i32 0
  store %"struct.std::_Rb_tree_node_base"* %call, %"struct.std::_Rb_tree_node_base"** %coerce.dive, align 8
  %coerce.dive2 = getelementptr inbounds %"struct.std::_Rb_tree_iterator", %"struct.std::_Rb_tree_iterator"* %retval, i32 0, i32 0
  %0 = load %"struct.std::_Rb_tree_node_base"*, %"struct.std::_Rb_tree_node_base"** %coerce.dive2, align 8
  ret %"struct.std::_Rb_tree_node_base"* %0
}

; Function Attrs: noinline optnone uwtable mustprogress
define linkonce_odr dso_local void @_ZNKSt3mapIjPvSt4lessIjESaISt4pairIKjS0_EEE8key_compEv(%"class.std::map.16"* nonnull dereferenceable(48) %this) #4 comdat align 2 {
entry:
  %this.addr = alloca %"class.std::map.16"*, align 8
  %undef.agg.tmp = alloca %"struct.std::less.6", align 1
  store %"class.std::map.16"* %this, %"class.std::map.16"** %this.addr, align 8
  %this1 = load %"class.std::map.16"*, %"class.std::map.16"** %this.addr, align 8
  %_M_t = getelementptr inbounds %"class.std::map.16", %"class.std::map.16"* %this1, i32 0, i32 0
  call void @_ZNKSt8_Rb_treeIjSt4pairIKjPvESt10_Select1stIS3_ESt4lessIjESaIS3_EE8key_compEv(%"class.std::_Rb_tree.17"* nonnull dereferenceable(48) %_M_t)
  ret void
}

; Function Attrs: noinline nounwind optnone uwtable mustprogress
define linkonce_odr dso_local zeroext i1 @_ZNKSt4lessIjEclERKjS2_(%"struct.std::less.6"* nonnull dereferenceable(1) %this, i32* nonnull align 4 dereferenceable(4) %__x, i32* nonnull align 4 dereferenceable(4) %__y) #5 comdat align 2 {
entry:
  %this.addr = alloca %"struct.std::less.6"*, align 8
  %__x.addr = alloca i32*, align 8
  %__y.addr = alloca i32*, align 8
  store %"struct.std::less.6"* %this, %"struct.std::less.6"** %this.addr, align 8
  store i32* %__x, i32** %__x.addr, align 8
  store i32* %__y, i32** %__y.addr, align 8
  %this1 = load %"struct.std::less.6"*, %"struct.std::less.6"** %this.addr, align 8
  %0 = load i32*, i32** %__x.addr, align 8
  %1 = load i32, i32* %0, align 4
  %2 = load i32*, i32** %__y.addr, align 8
  %3 = load i32, i32* %2, align 4
  %cmp = icmp ult i32 %1, %3
  ret i1 %cmp
}

; Function Attrs: noinline nounwind optnone uwtable mustprogress
define linkonce_odr dso_local nonnull align 8 dereferenceable(16) %"struct.std::pair"* @_ZNKSt17_Rb_tree_iteratorISt4pairIKjPvEEdeEv(%"struct.std::_Rb_tree_iterator"* nonnull dereferenceable(8) %this) #5 comdat align 2 personality i8* bitcast (i32 (...)* @__gxx_personality_v0 to i8*) {
entry:
  %this.addr = alloca %"struct.std::_Rb_tree_iterator"*, align 8
  store %"struct.std::_Rb_tree_iterator"* %this, %"struct.std::_Rb_tree_iterator"** %this.addr, align 8
  %this1 = load %"struct.std::_Rb_tree_iterator"*, %"struct.std::_Rb_tree_iterator"** %this.addr, align 8
  %_M_node = getelementptr inbounds %"struct.std::_Rb_tree_iterator", %"struct.std::_Rb_tree_iterator"* %this1, i32 0, i32 0
  %0 = load %"struct.std::_Rb_tree_node_base"*, %"struct.std::_Rb_tree_node_base"** %_M_node, align 8
  %1 = bitcast %"struct.std::_Rb_tree_node_base"* %0 to %"struct.std::_Rb_tree_node"*
  %call = invoke %"struct.std::pair"* @_ZNSt13_Rb_tree_nodeISt4pairIKjPvEE9_M_valptrEv(%"struct.std::_Rb_tree_node"* nonnull dereferenceable(48) %1)
          to label %invoke.cont unwind label %terminate.lpad

invoke.cont:                                      ; preds = %entry
  ret %"struct.std::pair"* %call

terminate.lpad:                                   ; preds = %entry
  %2 = landingpad { i8*, i32 }
          catch i8* null
  %3 = extractvalue { i8*, i32 } %2, 0
  call void @__clang_call_terminate(i8* %3) #24
  unreachable
}

; Function Attrs: noinline optnone uwtable mustprogress
define linkonce_odr dso_local %"struct.std::_Rb_tree_node_base"* @_ZNSt8_Rb_treeIjSt4pairIKjPvESt10_Select1stIS3_ESt4lessIjESaIS3_EE22_M_emplace_hint_uniqueIJRKSt21piecewise_construct_tSt5tupleIJOjEESE_IJEEEEESt17_Rb_tree_iteratorIS3_ESt23_Rb_tree_const_iteratorIS3_EDpOT_(%"class.std::_Rb_tree.17"* nonnull dereferenceable(48) %this, %"struct.std::_Rb_tree_node_base"* %__pos.coerce, %"struct.std::piecewise_construct_t"* nonnull align 1 dereferenceable(1) %__args, %"class.std::tuple"* nonnull align 8 dereferenceable(8) %__args1, %"class.std::tuple.36"* nonnull align 1 dereferenceable(1) %__args3) #4 comdat align 2 personality i8* bitcast (i32 (...)* @__gxx_personality_v0 to i8*) {
entry:
  %retval = alloca %"struct.std::_Rb_tree_iterator", align 8
  %__pos = alloca %"struct.std::_Rb_tree_const_iterator", align 8
  %this.addr = alloca %"class.std::_Rb_tree.17"*, align 8
  %__args.addr = alloca %"struct.std::piecewise_construct_t"*, align 8
  %__args.addr2 = alloca %"class.std::tuple"*, align 8
  %__args.addr4 = alloca %"class.std::tuple.36"*, align 8
  %__z = alloca %"struct.std::_Rb_tree_node"*, align 8
  %__res = alloca %"struct.std::pair.37", align 8
  %agg.tmp = alloca %"struct.std::_Rb_tree_const_iterator", align 8
  %exn.slot = alloca i8*, align 8
  %ehselector.slot = alloca i32, align 4
  %coerce.dive = getelementptr inbounds %"struct.std::_Rb_tree_const_iterator", %"struct.std::_Rb_tree_const_iterator"* %__pos, i32 0, i32 0
  store %"struct.std::_Rb_tree_node_base"* %__pos.coerce, %"struct.std::_Rb_tree_node_base"** %coerce.dive, align 8
  store %"class.std::_Rb_tree.17"* %this, %"class.std::_Rb_tree.17"** %this.addr, align 8
  store %"struct.std::piecewise_construct_t"* %__args, %"struct.std::piecewise_construct_t"** %__args.addr, align 8
  store %"class.std::tuple"* %__args1, %"class.std::tuple"** %__args.addr2, align 8
  store %"class.std::tuple.36"* %__args3, %"class.std::tuple.36"** %__args.addr4, align 8
  %this5 = load %"class.std::_Rb_tree.17"*, %"class.std::_Rb_tree.17"** %this.addr, align 8
  %0 = load %"struct.std::piecewise_construct_t"*, %"struct.std::piecewise_construct_t"** %__args.addr, align 8
  %call = call nonnull align 1 dereferenceable(1) %"struct.std::piecewise_construct_t"* @_ZSt7forwardIRKSt21piecewise_construct_tEOT_RNSt16remove_referenceIS3_E4typeE(%"struct.std::piecewise_construct_t"* nonnull align 1 dereferenceable(1) %0) #3
  %1 = load %"class.std::tuple"*, %"class.std::tuple"** %__args.addr2, align 8
  %call6 = call nonnull align 8 dereferenceable(8) %"class.std::tuple"* @_ZSt7forwardISt5tupleIJOjEEEOT_RNSt16remove_referenceIS3_E4typeE(%"class.std::tuple"* nonnull align 8 dereferenceable(8) %1) #3
  %2 = load %"class.std::tuple.36"*, %"class.std::tuple.36"** %__args.addr4, align 8
  %call7 = call nonnull align 1 dereferenceable(1) %"class.std::tuple.36"* @_ZSt7forwardISt5tupleIJEEEOT_RNSt16remove_referenceIS2_E4typeE(%"class.std::tuple.36"* nonnull align 1 dereferenceable(1) %2) #3
  %call8 = call %"struct.std::_Rb_tree_node"* @_ZNSt8_Rb_treeIjSt4pairIKjPvESt10_Select1stIS3_ESt4lessIjESaIS3_EE14_M_create_nodeIJRKSt21piecewise_construct_tSt5tupleIJOjEESE_IJEEEEEPSt13_Rb_tree_nodeIS3_EDpOT_(%"class.std::_Rb_tree.17"* nonnull dereferenceable(48) %this5, %"struct.std::piecewise_construct_t"* nonnull align 1 dereferenceable(1) %call, %"class.std::tuple"* nonnull align 8 dereferenceable(8) %call6, %"class.std::tuple.36"* nonnull align 1 dereferenceable(1) %call7)
  store %"struct.std::_Rb_tree_node"* %call8, %"struct.std::_Rb_tree_node"** %__z, align 8
  %3 = bitcast %"struct.std::_Rb_tree_const_iterator"* %agg.tmp to i8*
  %4 = bitcast %"struct.std::_Rb_tree_const_iterator"* %__pos to i8*
  call void @llvm.memcpy.p0i8.p0i8.i64(i8* align 8 %3, i8* align 8 %4, i64 8, i1 false)
  %5 = load %"struct.std::_Rb_tree_node"*, %"struct.std::_Rb_tree_node"** %__z, align 8
  %call9 = invoke nonnull align 4 dereferenceable(4) i32* @_ZNSt8_Rb_treeIjSt4pairIKjPvESt10_Select1stIS3_ESt4lessIjESaIS3_EE6_S_keyEPKSt13_Rb_tree_nodeIS3_E(%"struct.std::_Rb_tree_node"* %5)
          to label %invoke.cont unwind label %lpad

invoke.cont:                                      ; preds = %entry
  %coerce.dive10 = getelementptr inbounds %"struct.std::_Rb_tree_const_iterator", %"struct.std::_Rb_tree_const_iterator"* %agg.tmp, i32 0, i32 0
  %6 = load %"struct.std::_Rb_tree_node_base"*, %"struct.std::_Rb_tree_node_base"** %coerce.dive10, align 8
  %call12 = invoke { %"struct.std::_Rb_tree_node_base"*, %"struct.std::_Rb_tree_node_base"* } @_ZNSt8_Rb_treeIjSt4pairIKjPvESt10_Select1stIS3_ESt4lessIjESaIS3_EE29_M_get_insert_hint_unique_posESt23_Rb_tree_const_iteratorIS3_ERS1_(%"class.std::_Rb_tree.17"* nonnull dereferenceable(48) %this5, %"struct.std::_Rb_tree_node_base"* %6, i32* nonnull align 4 dereferenceable(4) %call9)
          to label %invoke.cont11 unwind label %lpad

invoke.cont11:                                    ; preds = %invoke.cont
  %7 = bitcast %"struct.std::pair.37"* %__res to { %"struct.std::_Rb_tree_node_base"*, %"struct.std::_Rb_tree_node_base"* }*
  %8 = getelementptr inbounds { %"struct.std::_Rb_tree_node_base"*, %"struct.std::_Rb_tree_node_base"* }, { %"struct.std::_Rb_tree_node_base"*, %"struct.std::_Rb_tree_node_base"* }* %7, i32 0, i32 0
  %9 = extractvalue { %"struct.std::_Rb_tree_node_base"*, %"struct.std::_Rb_tree_node_base"* } %call12, 0
  store %"struct.std::_Rb_tree_node_base"* %9, %"struct.std::_Rb_tree_node_base"** %8, align 8
  %10 = getelementptr inbounds { %"struct.std::_Rb_tree_node_base"*, %"struct.std::_Rb_tree_node_base"* }, { %"struct.std::_Rb_tree_node_base"*, %"struct.std::_Rb_tree_node_base"* }* %7, i32 0, i32 1
  %11 = extractvalue { %"struct.std::_Rb_tree_node_base"*, %"struct.std::_Rb_tree_node_base"* } %call12, 1
  store %"struct.std::_Rb_tree_node_base"* %11, %"struct.std::_Rb_tree_node_base"** %10, align 8
  %second = getelementptr inbounds %"struct.std::pair.37", %"struct.std::pair.37"* %__res, i32 0, i32 1
  %12 = load %"struct.std::_Rb_tree_node_base"*, %"struct.std::_Rb_tree_node_base"** %second, align 8
  %tobool = icmp ne %"struct.std::_Rb_tree_node_base"* %12, null
  br i1 %tobool, label %if.then, label %if.end

if.then:                                          ; preds = %invoke.cont11
  %first = getelementptr inbounds %"struct.std::pair.37", %"struct.std::pair.37"* %__res, i32 0, i32 0
  %13 = load %"struct.std::_Rb_tree_node_base"*, %"struct.std::_Rb_tree_node_base"** %first, align 8
  %second13 = getelementptr inbounds %"struct.std::pair.37", %"struct.std::pair.37"* %__res, i32 0, i32 1
  %14 = load %"struct.std::_Rb_tree_node_base"*, %"struct.std::_Rb_tree_node_base"** %second13, align 8
  %15 = load %"struct.std::_Rb_tree_node"*, %"struct.std::_Rb_tree_node"** %__z, align 8
  %call15 = invoke %"struct.std::_Rb_tree_node_base"* @_ZNSt8_Rb_treeIjSt4pairIKjPvESt10_Select1stIS3_ESt4lessIjESaIS3_EE14_M_insert_nodeEPSt18_Rb_tree_node_baseSB_PSt13_Rb_tree_nodeIS3_E(%"class.std::_Rb_tree.17"* nonnull dereferenceable(48) %this5, %"struct.std::_Rb_tree_node_base"* %13, %"struct.std::_Rb_tree_node_base"* %14, %"struct.std::_Rb_tree_node"* %15)
          to label %invoke.cont14 unwind label %lpad

invoke.cont14:                                    ; preds = %if.then
  %coerce.dive16 = getelementptr inbounds %"struct.std::_Rb_tree_iterator", %"struct.std::_Rb_tree_iterator"* %retval, i32 0, i32 0
  store %"struct.std::_Rb_tree_node_base"* %call15, %"struct.std::_Rb_tree_node_base"** %coerce.dive16, align 8
  br label %return

lpad:                                             ; preds = %if.then, %invoke.cont, %entry
  %16 = landingpad { i8*, i32 }
          catch i8* null
  %17 = extractvalue { i8*, i32 } %16, 0
  store i8* %17, i8** %exn.slot, align 8
  %18 = extractvalue { i8*, i32 } %16, 1
  store i32 %18, i32* %ehselector.slot, align 4
  br label %catch

catch:                                            ; preds = %lpad
  %exn = load i8*, i8** %exn.slot, align 8
  %19 = call i8* @__cxa_begin_catch(i8* %exn) #3
  %20 = load %"struct.std::_Rb_tree_node"*, %"struct.std::_Rb_tree_node"** %__z, align 8
  call void @_ZNSt8_Rb_treeIjSt4pairIKjPvESt10_Select1stIS3_ESt4lessIjESaIS3_EE12_M_drop_nodeEPSt13_Rb_tree_nodeIS3_E(%"class.std::_Rb_tree.17"* nonnull dereferenceable(48) %this5, %"struct.std::_Rb_tree_node"* %20) #3
  invoke void @__cxa_rethrow() #25
          to label %unreachable unwind label %lpad18

if.end:                                           ; preds = %invoke.cont11
  %21 = load %"struct.std::_Rb_tree_node"*, %"struct.std::_Rb_tree_node"** %__z, align 8
  call void @_ZNSt8_Rb_treeIjSt4pairIKjPvESt10_Select1stIS3_ESt4lessIjESaIS3_EE12_M_drop_nodeEPSt13_Rb_tree_nodeIS3_E(%"class.std::_Rb_tree.17"* nonnull dereferenceable(48) %this5, %"struct.std::_Rb_tree_node"* %21) #3
  %first17 = getelementptr inbounds %"struct.std::pair.37", %"struct.std::pair.37"* %__res, i32 0, i32 0
  %22 = load %"struct.std::_Rb_tree_node_base"*, %"struct.std::_Rb_tree_node_base"** %first17, align 8
  call void @_ZNSt17_Rb_tree_iteratorISt4pairIKjPvEEC2EPSt18_Rb_tree_node_base(%"struct.std::_Rb_tree_iterator"* nonnull dereferenceable(8) %retval, %"struct.std::_Rb_tree_node_base"* %22) #3
  br label %return

lpad18:                                           ; preds = %catch
  %23 = landingpad { i8*, i32 }
          cleanup
  %24 = extractvalue { i8*, i32 } %23, 0
  store i8* %24, i8** %exn.slot, align 8
  %25 = extractvalue { i8*, i32 } %23, 1
  store i32 %25, i32* %ehselector.slot, align 4
  invoke void @__cxa_end_catch()
          to label %invoke.cont19 unwind label %terminate.lpad

invoke.cont19:                                    ; preds = %lpad18
  br label %eh.resume

try.cont:                                         ; No predecessors!
  call void @llvm.trap()
  unreachable

return:                                           ; preds = %if.end, %invoke.cont14
  %coerce.dive20 = getelementptr inbounds %"struct.std::_Rb_tree_iterator", %"struct.std::_Rb_tree_iterator"* %retval, i32 0, i32 0
  %26 = load %"struct.std::_Rb_tree_node_base"*, %"struct.std::_Rb_tree_node_base"** %coerce.dive20, align 8
  ret %"struct.std::_Rb_tree_node_base"* %26

eh.resume:                                        ; preds = %invoke.cont19
  %exn21 = load i8*, i8** %exn.slot, align 8
  %sel = load i32, i32* %ehselector.slot, align 4
  %lpad.val = insertvalue { i8*, i32 } undef, i8* %exn21, 0
  %lpad.val22 = insertvalue { i8*, i32 } %lpad.val, i32 %sel, 1
  resume { i8*, i32 } %lpad.val22

terminate.lpad:                                   ; preds = %lpad18
  %27 = landingpad { i8*, i32 }
          catch i8* null
  %28 = extractvalue { i8*, i32 } %27, 0
  call void @__clang_call_terminate(i8* %28) #24
  unreachable

unreachable:                                      ; preds = %catch
  unreachable
}

; Function Attrs: noinline nounwind optnone uwtable
define linkonce_odr dso_local void @_ZNSt23_Rb_tree_const_iteratorISt4pairIKjPvEEC2ERKSt17_Rb_tree_iteratorIS3_E(%"struct.std::_Rb_tree_const_iterator"* nonnull dereferenceable(8) %this, %"struct.std::_Rb_tree_iterator"* nonnull align 8 dereferenceable(8) %__it) unnamed_addr #13 comdat align 2 {
entry:
  %this.addr = alloca %"struct.std::_Rb_tree_const_iterator"*, align 8
  %__it.addr = alloca %"struct.std::_Rb_tree_iterator"*, align 8
  store %"struct.std::_Rb_tree_const_iterator"* %this, %"struct.std::_Rb_tree_const_iterator"** %this.addr, align 8
  store %"struct.std::_Rb_tree_iterator"* %__it, %"struct.std::_Rb_tree_iterator"** %__it.addr, align 8
  %this1 = load %"struct.std::_Rb_tree_const_iterator"*, %"struct.std::_Rb_tree_const_iterator"** %this.addr, align 8
  %_M_node = getelementptr inbounds %"struct.std::_Rb_tree_const_iterator", %"struct.std::_Rb_tree_const_iterator"* %this1, i32 0, i32 0
  %0 = load %"struct.std::_Rb_tree_iterator"*, %"struct.std::_Rb_tree_iterator"** %__it.addr, align 8
  %_M_node2 = getelementptr inbounds %"struct.std::_Rb_tree_iterator", %"struct.std::_Rb_tree_iterator"* %0, i32 0, i32 0
  %1 = load %"struct.std::_Rb_tree_node_base"*, %"struct.std::_Rb_tree_node_base"** %_M_node2, align 8
  store %"struct.std::_Rb_tree_node_base"* %1, %"struct.std::_Rb_tree_node_base"** %_M_node, align 8
  ret void
}

; Function Attrs: noinline nounwind optnone uwtable mustprogress
define linkonce_odr dso_local void @_ZSt16forward_as_tupleIJjEESt5tupleIJDpOT_EES3_(%"class.std::tuple"*  align 8 %agg.result, i32* nonnull align 4 dereferenceable(4) %__args) #5 comdat personality i8* bitcast (i32 (...)* @__gxx_personality_v0 to i8*) {
entry:
  %result.ptr = alloca i8*, align 8
  %__args.addr = alloca i32*, align 8
  %0 = bitcast %"class.std::tuple"* %agg.result to i8*
  store i8* %0, i8** %result.ptr, align 8
  store i32* %__args, i32** %__args.addr, align 8
  %1 = load i32*, i32** %__args.addr, align 8
  %call = call nonnull align 4 dereferenceable(4) i32* @_ZSt7forwardIjEOT_RNSt16remove_referenceIS0_E4typeE(i32* nonnull align 4 dereferenceable(4) %1) #3
  invoke void @_ZNSt5tupleIJOjEEC2IJjELb1EEEDpOT_(%"class.std::tuple"* nonnull dereferenceable(8) %agg.result, i32* nonnull align 4 dereferenceable(4) %call)
          to label %invoke.cont unwind label %terminate.lpad

invoke.cont:                                      ; preds = %entry
  ret void

terminate.lpad:                                   ; preds = %entry
  %2 = landingpad { i8*, i32 }
          catch i8* null
  %3 = extractvalue { i8*, i32 } %2, 0
  call void @__clang_call_terminate(i8* %3) #24
  unreachable
}

; Function Attrs: noinline nounwind optnone uwtable mustprogress
define linkonce_odr dso_local nonnull align 4 dereferenceable(4) i32* @_ZSt4moveIRjEONSt16remove_referenceIT_E4typeEOS2_(i32* nonnull align 4 dereferenceable(4) %__t) #5 comdat {
entry:
  %__t.addr = alloca i32*, align 8
  store i32* %__t, i32** %__t.addr, align 8
  %0 = load i32*, i32** %__t.addr, align 8
  ret i32* %0
}

; Function Attrs: noinline optnone uwtable mustprogress
define linkonce_odr dso_local %"struct.std::_Rb_tree_node_base"* @_ZNSt8_Rb_treeIjSt4pairIKjPvESt10_Select1stIS3_ESt4lessIjESaIS3_EE11lower_boundERS1_(%"class.std::_Rb_tree.17"* nonnull dereferenceable(48) %this, i32* nonnull align 4 dereferenceable(4) %__k) #4 comdat align 2 {
entry:
  %retval = alloca %"struct.std::_Rb_tree_iterator", align 8
  %this.addr = alloca %"class.std::_Rb_tree.17"*, align 8
  %__k.addr = alloca i32*, align 8
  store %"class.std::_Rb_tree.17"* %this, %"class.std::_Rb_tree.17"** %this.addr, align 8
  store i32* %__k, i32** %__k.addr, align 8
  %this1 = load %"class.std::_Rb_tree.17"*, %"class.std::_Rb_tree.17"** %this.addr, align 8
  %call = call %"struct.std::_Rb_tree_node"* @_ZNSt8_Rb_treeIjSt4pairIKjPvESt10_Select1stIS3_ESt4lessIjESaIS3_EE8_M_beginEv(%"class.std::_Rb_tree.17"* nonnull dereferenceable(48) %this1) #3
  %call2 = call %"struct.std::_Rb_tree_node_base"* @_ZNSt8_Rb_treeIjSt4pairIKjPvESt10_Select1stIS3_ESt4lessIjESaIS3_EE6_M_endEv(%"class.std::_Rb_tree.17"* nonnull dereferenceable(48) %this1) #3
  %0 = load i32*, i32** %__k.addr, align 8
  %call3 = call %"struct.std::_Rb_tree_node_base"* @_ZNSt8_Rb_treeIjSt4pairIKjPvESt10_Select1stIS3_ESt4lessIjESaIS3_EE14_M_lower_boundEPSt13_Rb_tree_nodeIS3_EPSt18_Rb_tree_node_baseRS1_(%"class.std::_Rb_tree.17"* nonnull dereferenceable(48) %this1, %"struct.std::_Rb_tree_node"* %call, %"struct.std::_Rb_tree_node_base"* %call2, i32* nonnull align 4 dereferenceable(4) %0)
  %coerce.dive = getelementptr inbounds %"struct.std::_Rb_tree_iterator", %"struct.std::_Rb_tree_iterator"* %retval, i32 0, i32 0
  store %"struct.std::_Rb_tree_node_base"* %call3, %"struct.std::_Rb_tree_node_base"** %coerce.dive, align 8
  %coerce.dive4 = getelementptr inbounds %"struct.std::_Rb_tree_iterator", %"struct.std::_Rb_tree_iterator"* %retval, i32 0, i32 0
  %1 = load %"struct.std::_Rb_tree_node_base"*, %"struct.std::_Rb_tree_node_base"** %coerce.dive4, align 8
  ret %"struct.std::_Rb_tree_node_base"* %1
}

; Function Attrs: noinline optnone uwtable mustprogress
define linkonce_odr dso_local %"struct.std::_Rb_tree_node_base"* @_ZNSt8_Rb_treeIjSt4pairIKjPvESt10_Select1stIS3_ESt4lessIjESaIS3_EE14_M_lower_boundEPSt13_Rb_tree_nodeIS3_EPSt18_Rb_tree_node_baseRS1_(%"class.std::_Rb_tree.17"* nonnull dereferenceable(48) %this, %"struct.std::_Rb_tree_node"* %__x, %"struct.std::_Rb_tree_node_base"* %__y, i32* nonnull align 4 dereferenceable(4) %__k) #4 comdat align 2 {
entry:
  %retval = alloca %"struct.std::_Rb_tree_iterator", align 8
  %this.addr = alloca %"class.std::_Rb_tree.17"*, align 8
  %__x.addr = alloca %"struct.std::_Rb_tree_node"*, align 8
  %__y.addr = alloca %"struct.std::_Rb_tree_node_base"*, align 8
  %__k.addr = alloca i32*, align 8
  store %"class.std::_Rb_tree.17"* %this, %"class.std::_Rb_tree.17"** %this.addr, align 8
  store %"struct.std::_Rb_tree_node"* %__x, %"struct.std::_Rb_tree_node"** %__x.addr, align 8
  store %"struct.std::_Rb_tree_node_base"* %__y, %"struct.std::_Rb_tree_node_base"** %__y.addr, align 8
  store i32* %__k, i32** %__k.addr, align 8
  %this1 = load %"class.std::_Rb_tree.17"*, %"class.std::_Rb_tree.17"** %this.addr, align 8
  br label %while.cond

while.cond:                                       ; preds = %if.end, %entry
  %0 = load %"struct.std::_Rb_tree_node"*, %"struct.std::_Rb_tree_node"** %__x.addr, align 8
  %cmp = icmp ne %"struct.std::_Rb_tree_node"* %0, null
  br i1 %cmp, label %while.body, label %while.end

while.body:                                       ; preds = %while.cond
  %_M_impl = getelementptr inbounds %"class.std::_Rb_tree.17", %"class.std::_Rb_tree.17"* %this1, i32 0, i32 0
  %1 = bitcast %"struct.std::_Rb_tree<unsigned int, std::pair<const unsigned int, void *>, std::_Select1st<std::pair<const unsigned int, void *>>, std::less<unsigned int>>::_Rb_tree_impl"* %_M_impl to %"struct.std::_Rb_tree_key_compare.5"*
  %_M_key_compare = getelementptr inbounds %"struct.std::_Rb_tree_key_compare.5", %"struct.std::_Rb_tree_key_compare.5"* %1, i32 0, i32 0
  %2 = load %"struct.std::_Rb_tree_node"*, %"struct.std::_Rb_tree_node"** %__x.addr, align 8
  %call = call nonnull align 4 dereferenceable(4) i32* @_ZNSt8_Rb_treeIjSt4pairIKjPvESt10_Select1stIS3_ESt4lessIjESaIS3_EE6_S_keyEPKSt13_Rb_tree_nodeIS3_E(%"struct.std::_Rb_tree_node"* %2)
  %3 = load i32*, i32** %__k.addr, align 8
  %call2 = call zeroext i1 @_ZNKSt4lessIjEclERKjS2_(%"struct.std::less.6"* nonnull dereferenceable(1) %_M_key_compare, i32* nonnull align 4 dereferenceable(4) %call, i32* nonnull align 4 dereferenceable(4) %3)
  br i1 %call2, label %if.else, label %if.then

if.then:                                          ; preds = %while.body
  %4 = load %"struct.std::_Rb_tree_node"*, %"struct.std::_Rb_tree_node"** %__x.addr, align 8
  %5 = bitcast %"struct.std::_Rb_tree_node"* %4 to %"struct.std::_Rb_tree_node_base"*
  store %"struct.std::_Rb_tree_node_base"* %5, %"struct.std::_Rb_tree_node_base"** %__y.addr, align 8
  %6 = load %"struct.std::_Rb_tree_node"*, %"struct.std::_Rb_tree_node"** %__x.addr, align 8
  %7 = bitcast %"struct.std::_Rb_tree_node"* %6 to %"struct.std::_Rb_tree_node_base"*
  %call3 = call %"struct.std::_Rb_tree_node"* @_ZNSt8_Rb_treeIjSt4pairIKjPvESt10_Select1stIS3_ESt4lessIjESaIS3_EE7_S_leftEPSt18_Rb_tree_node_base(%"struct.std::_Rb_tree_node_base"* %7) #3
  store %"struct.std::_Rb_tree_node"* %call3, %"struct.std::_Rb_tree_node"** %__x.addr, align 8
  br label %if.end

if.else:                                          ; preds = %while.body
  %8 = load %"struct.std::_Rb_tree_node"*, %"struct.std::_Rb_tree_node"** %__x.addr, align 8
  %9 = bitcast %"struct.std::_Rb_tree_node"* %8 to %"struct.std::_Rb_tree_node_base"*
  %call4 = call %"struct.std::_Rb_tree_node"* @_ZNSt8_Rb_treeIjSt4pairIKjPvESt10_Select1stIS3_ESt4lessIjESaIS3_EE8_S_rightEPSt18_Rb_tree_node_base(%"struct.std::_Rb_tree_node_base"* %9) #3
  store %"struct.std::_Rb_tree_node"* %call4, %"struct.std::_Rb_tree_node"** %__x.addr, align 8
  br label %if.end

if.end:                                           ; preds = %if.else, %if.then
  br label %while.cond, !llvm.loop !5

while.end:                                        ; preds = %while.cond
  %10 = load %"struct.std::_Rb_tree_node_base"*, %"struct.std::_Rb_tree_node_base"** %__y.addr, align 8
  call void @_ZNSt17_Rb_tree_iteratorISt4pairIKjPvEEC2EPSt18_Rb_tree_node_base(%"struct.std::_Rb_tree_iterator"* nonnull dereferenceable(8) %retval, %"struct.std::_Rb_tree_node_base"* %10) #3
  %coerce.dive = getelementptr inbounds %"struct.std::_Rb_tree_iterator", %"struct.std::_Rb_tree_iterator"* %retval, i32 0, i32 0
  %11 = load %"struct.std::_Rb_tree_node_base"*, %"struct.std::_Rb_tree_node_base"** %coerce.dive, align 8
  ret %"struct.std::_Rb_tree_node_base"* %11
}

; Function Attrs: noinline nounwind optnone uwtable mustprogress
define linkonce_odr dso_local %"struct.std::_Rb_tree_node"* @_ZNSt8_Rb_treeIjSt4pairIKjPvESt10_Select1stIS3_ESt4lessIjESaIS3_EE8_M_beginEv(%"class.std::_Rb_tree.17"* nonnull dereferenceable(48) %this) #5 comdat align 2 {
entry:
  %this.addr = alloca %"class.std::_Rb_tree.17"*, align 8
  store %"class.std::_Rb_tree.17"* %this, %"class.std::_Rb_tree.17"** %this.addr, align 8
  %this1 = load %"class.std::_Rb_tree.17"*, %"class.std::_Rb_tree.17"** %this.addr, align 8
  %_M_impl = getelementptr inbounds %"class.std::_Rb_tree.17", %"class.std::_Rb_tree.17"* %this1, i32 0, i32 0
  %0 = bitcast %"struct.std::_Rb_tree<unsigned int, std::pair<const unsigned int, void *>, std::_Select1st<std::pair<const unsigned int, void *>>, std::less<unsigned int>>::_Rb_tree_impl"* %_M_impl to i8*
  %add.ptr = getelementptr inbounds i8, i8* %0, i64 8
  %1 = bitcast i8* %add.ptr to %"struct.std::_Rb_tree_header"*
  %_M_header = getelementptr inbounds %"struct.std::_Rb_tree_header", %"struct.std::_Rb_tree_header"* %1, i32 0, i32 0
  %_M_parent = getelementptr inbounds %"struct.std::_Rb_tree_node_base", %"struct.std::_Rb_tree_node_base"* %_M_header, i32 0, i32 1
  %2 = load %"struct.std::_Rb_tree_node_base"*, %"struct.std::_Rb_tree_node_base"** %_M_parent, align 8
  %3 = bitcast %"struct.std::_Rb_tree_node_base"* %2 to %"struct.std::_Rb_tree_node"*
  ret %"struct.std::_Rb_tree_node"* %3
}

; Function Attrs: noinline nounwind optnone uwtable mustprogress
define linkonce_odr dso_local %"struct.std::_Rb_tree_node_base"* @_ZNSt8_Rb_treeIjSt4pairIKjPvESt10_Select1stIS3_ESt4lessIjESaIS3_EE6_M_endEv(%"class.std::_Rb_tree.17"* nonnull dereferenceable(48) %this) #5 comdat align 2 {
entry:
  %this.addr = alloca %"class.std::_Rb_tree.17"*, align 8
  store %"class.std::_Rb_tree.17"* %this, %"class.std::_Rb_tree.17"** %this.addr, align 8
  %this1 = load %"class.std::_Rb_tree.17"*, %"class.std::_Rb_tree.17"** %this.addr, align 8
  %_M_impl = getelementptr inbounds %"class.std::_Rb_tree.17", %"class.std::_Rb_tree.17"* %this1, i32 0, i32 0
  %0 = bitcast %"struct.std::_Rb_tree<unsigned int, std::pair<const unsigned int, void *>, std::_Select1st<std::pair<const unsigned int, void *>>, std::less<unsigned int>>::_Rb_tree_impl"* %_M_impl to i8*
  %add.ptr = getelementptr inbounds i8, i8* %0, i64 8
  %1 = bitcast i8* %add.ptr to %"struct.std::_Rb_tree_header"*
  %_M_header = getelementptr inbounds %"struct.std::_Rb_tree_header", %"struct.std::_Rb_tree_header"* %1, i32 0, i32 0
  ret %"struct.std::_Rb_tree_node_base"* %_M_header
}

; Function Attrs: noinline optnone uwtable mustprogress
define linkonce_odr dso_local nonnull align 4 dereferenceable(4) i32* @_ZNSt8_Rb_treeIjSt4pairIKjPvESt10_Select1stIS3_ESt4lessIjESaIS3_EE6_S_keyEPKSt13_Rb_tree_nodeIS3_E(%"struct.std::_Rb_tree_node"* %__x) #4 comdat align 2 {
entry:
  %__x.addr = alloca %"struct.std::_Rb_tree_node"*, align 8
  %ref.tmp = alloca %"struct.std::_Select1st", align 1
  store %"struct.std::_Rb_tree_node"* %__x, %"struct.std::_Rb_tree_node"** %__x.addr, align 8
  %0 = load %"struct.std::_Rb_tree_node"*, %"struct.std::_Rb_tree_node"** %__x.addr, align 8
  %call = call %"struct.std::pair"* @_ZNKSt13_Rb_tree_nodeISt4pairIKjPvEE9_M_valptrEv(%"struct.std::_Rb_tree_node"* nonnull dereferenceable(48) %0)
  %call1 = call nonnull align 4 dereferenceable(4) i32* @_ZNKSt10_Select1stISt4pairIKjPvEEclERKS3_(%"struct.std::_Select1st"* nonnull dereferenceable(1) %ref.tmp, %"struct.std::pair"* nonnull align 8 dereferenceable(16) %call)
  ret i32* %call1
}

; Function Attrs: noinline nounwind optnone uwtable mustprogress
define linkonce_odr dso_local %"struct.std::_Rb_tree_node"* @_ZNSt8_Rb_treeIjSt4pairIKjPvESt10_Select1stIS3_ESt4lessIjESaIS3_EE7_S_leftEPSt18_Rb_tree_node_base(%"struct.std::_Rb_tree_node_base"* %__x) #5 comdat align 2 {
entry:
  %__x.addr = alloca %"struct.std::_Rb_tree_node_base"*, align 8
  store %"struct.std::_Rb_tree_node_base"* %__x, %"struct.std::_Rb_tree_node_base"** %__x.addr, align 8
  %0 = load %"struct.std::_Rb_tree_node_base"*, %"struct.std::_Rb_tree_node_base"** %__x.addr, align 8
  %_M_left = getelementptr inbounds %"struct.std::_Rb_tree_node_base", %"struct.std::_Rb_tree_node_base"* %0, i32 0, i32 2
  %1 = load %"struct.std::_Rb_tree_node_base"*, %"struct.std::_Rb_tree_node_base"** %_M_left, align 8
  %2 = bitcast %"struct.std::_Rb_tree_node_base"* %1 to %"struct.std::_Rb_tree_node"*
  ret %"struct.std::_Rb_tree_node"* %2
}

; Function Attrs: noinline nounwind optnone uwtable mustprogress
define linkonce_odr dso_local %"struct.std::_Rb_tree_node"* @_ZNSt8_Rb_treeIjSt4pairIKjPvESt10_Select1stIS3_ESt4lessIjESaIS3_EE8_S_rightEPSt18_Rb_tree_node_base(%"struct.std::_Rb_tree_node_base"* %__x) #5 comdat align 2 {
entry:
  %__x.addr = alloca %"struct.std::_Rb_tree_node_base"*, align 8
  store %"struct.std::_Rb_tree_node_base"* %__x, %"struct.std::_Rb_tree_node_base"** %__x.addr, align 8
  %0 = load %"struct.std::_Rb_tree_node_base"*, %"struct.std::_Rb_tree_node_base"** %__x.addr, align 8
  %_M_right = getelementptr inbounds %"struct.std::_Rb_tree_node_base", %"struct.std::_Rb_tree_node_base"* %0, i32 0, i32 3
  %1 = load %"struct.std::_Rb_tree_node_base"*, %"struct.std::_Rb_tree_node_base"** %_M_right, align 8
  %2 = bitcast %"struct.std::_Rb_tree_node_base"* %1 to %"struct.std::_Rb_tree_node"*
  ret %"struct.std::_Rb_tree_node"* %2
}

; Function Attrs: noinline nounwind optnone uwtable
define linkonce_odr dso_local void @_ZNSt17_Rb_tree_iteratorISt4pairIKjPvEEC2EPSt18_Rb_tree_node_base(%"struct.std::_Rb_tree_iterator"* nonnull dereferenceable(8) %this, %"struct.std::_Rb_tree_node_base"* %__x) unnamed_addr #13 comdat align 2 {
entry:
  %this.addr = alloca %"struct.std::_Rb_tree_iterator"*, align 8
  %__x.addr = alloca %"struct.std::_Rb_tree_node_base"*, align 8
  store %"struct.std::_Rb_tree_iterator"* %this, %"struct.std::_Rb_tree_iterator"** %this.addr, align 8
  store %"struct.std::_Rb_tree_node_base"* %__x, %"struct.std::_Rb_tree_node_base"** %__x.addr, align 8
  %this1 = load %"struct.std::_Rb_tree_iterator"*, %"struct.std::_Rb_tree_iterator"** %this.addr, align 8
  %_M_node = getelementptr inbounds %"struct.std::_Rb_tree_iterator", %"struct.std::_Rb_tree_iterator"* %this1, i32 0, i32 0
  %0 = load %"struct.std::_Rb_tree_node_base"*, %"struct.std::_Rb_tree_node_base"** %__x.addr, align 8
  store %"struct.std::_Rb_tree_node_base"* %0, %"struct.std::_Rb_tree_node_base"** %_M_node, align 8
  ret void
}

; Function Attrs: noinline nounwind optnone uwtable mustprogress
define linkonce_odr dso_local nonnull align 4 dereferenceable(4) i32* @_ZNKSt10_Select1stISt4pairIKjPvEEclERKS3_(%"struct.std::_Select1st"* nonnull dereferenceable(1) %this, %"struct.std::pair"* nonnull align 8 dereferenceable(16) %__x) #5 comdat align 2 {
entry:
  %this.addr = alloca %"struct.std::_Select1st"*, align 8
  %__x.addr = alloca %"struct.std::pair"*, align 8
  store %"struct.std::_Select1st"* %this, %"struct.std::_Select1st"** %this.addr, align 8
  store %"struct.std::pair"* %__x, %"struct.std::pair"** %__x.addr, align 8
  %this1 = load %"struct.std::_Select1st"*, %"struct.std::_Select1st"** %this.addr, align 8
  %0 = load %"struct.std::pair"*, %"struct.std::pair"** %__x.addr, align 8
  %first = getelementptr inbounds %"struct.std::pair", %"struct.std::pair"* %0, i32 0, i32 0
  ret i32* %first
}

; Function Attrs: noinline nounwind optnone uwtable mustprogress
define linkonce_odr dso_local %"struct.std::pair"* @_ZNKSt13_Rb_tree_nodeISt4pairIKjPvEE9_M_valptrEv(%"struct.std::_Rb_tree_node"* nonnull dereferenceable(48) %this) #5 comdat align 2 {
entry:
  %this.addr = alloca %"struct.std::_Rb_tree_node"*, align 8
  store %"struct.std::_Rb_tree_node"* %this, %"struct.std::_Rb_tree_node"** %this.addr, align 8
  %this1 = load %"struct.std::_Rb_tree_node"*, %"struct.std::_Rb_tree_node"** %this.addr, align 8
  %_M_storage = getelementptr inbounds %"struct.std::_Rb_tree_node", %"struct.std::_Rb_tree_node"* %this1, i32 0, i32 1
  %call = call %"struct.std::pair"* @_ZNK9__gnu_cxx16__aligned_membufISt4pairIKjPvEE6_M_ptrEv(%"struct.__gnu_cxx::__aligned_membuf"* nonnull dereferenceable(16) %_M_storage) #3
  ret %"struct.std::pair"* %call
}

; Function Attrs: noinline nounwind optnone uwtable mustprogress
define linkonce_odr dso_local %"struct.std::pair"* @_ZNK9__gnu_cxx16__aligned_membufISt4pairIKjPvEE6_M_ptrEv(%"struct.__gnu_cxx::__aligned_membuf"* nonnull dereferenceable(16) %this) #5 comdat align 2 {
entry:
  %this.addr = alloca %"struct.__gnu_cxx::__aligned_membuf"*, align 8
  store %"struct.__gnu_cxx::__aligned_membuf"* %this, %"struct.__gnu_cxx::__aligned_membuf"** %this.addr, align 8
  %this1 = load %"struct.__gnu_cxx::__aligned_membuf"*, %"struct.__gnu_cxx::__aligned_membuf"** %this.addr, align 8
  %call = call i8* @_ZNK9__gnu_cxx16__aligned_membufISt4pairIKjPvEE7_M_addrEv(%"struct.__gnu_cxx::__aligned_membuf"* nonnull dereferenceable(16) %this1) #3
  %0 = bitcast i8* %call to %"struct.std::pair"*
